** EXPERIMENTAL (HLL) ** Open Watcom Linker Version 2.0beta1 Limited Availability
Portions Copyright (c) 1985-2002 Sybase, Inc. All Rights Reserved.
Created on:       21/12/10 01:58:37
Executable Image: SDL2gfx.dll
creating an OS/2 and eComStation dynamic link library
symbol _heapenable removed


                        +------------+
                        |   Groups   |
                        +------------+

Group                           Address              Size
=====                           =======              ====

DGROUP                          0002:00000000        00001de0



                        +--------------+
                        |   Segments   |
                        +--------------+

Segment                Class          Group          Address         Size
=======                =====          =====          =======         ====

BEGTEXT                CODE           AUTO           0001:00000000   00000007
_TEXT                  CODE           AUTO           0001:00000010   0000eaf5
_NULL                  BEGDATA        DGROUP         0002:00000000   00000004
_AFTERNULL             BEGDATA        DGROUP         0002:00000004   00000000
CONST                  DATA           DGROUP         0002:00000004   0000010c
CONST2                 DATA           DGROUP         0002:00000110   00000000
_DATA                  DATA           DGROUP         0002:00000110   00000dac
XIB                    DATA           DGROUP         0002:00000ebc   00000000
XI                     DATA           DGROUP         0002:00000ebc   00000018
XIE                    DATA           DGROUP         0002:00000ed4   00000000
YIB                    DATA           DGROUP         0002:00000ed4   00000000
YI                     DATA           DGROUP         0002:00000ed4   0000000c
YIE                    DATA           DGROUP         0002:00000ee0   00000000
TIB                    DATA           DGROUP         0002:00000ee0   00000000
TI                     DATA           DGROUP         0002:00000ee0   00000000
TIE                    DATA           DGROUP         0002:00000ee0   00000000
DATA                   DATA           DGROUP         0002:00000ee0   00000000
DATA32                 DATA           DGROUP         0002:00000ee0   000002b4
CONST32                CONST          DGROUP         0002:00001194   00000000
_BSS                   BSS            DGROUP         0002:00001194   00000c44
BSS32                  BSS            DGROUP         0002:00001dd8   00000000
STACK                  STACK          DGROUP         0002:00001de0   00000000


                        +----------------+
                        |   Memory Map   |
                        +----------------+

* = unreferenced symbol
+ = symbol only referenced locally

Address        Symbol
=======        ======

Module: SDL2_framerate.obj(/home/ozzie/Downloads/sdl-misc/SDL2-OS2/packages/SDL2_gfx/SDL2_framerate.c)
0001:00000010* _getTicks
0001:00000020+ SDL_initFramerate
0001:00000050+ SDL_setFramerate
0001:000000a0+ SDL_getFramerate
0001:000000c0+ SDL_getFramecount
0001:000000e0+ SDL_framerateDelay
Module: SDL2_gfxPrimitives.obj(/home/ozzie/Downloads/sdl-misc/SDL2-OS2/packages/SDL2_gfx/SDL2_gfxPrimitives.c)
0001:00000160* pixel
0001:00000180+ pixelColor
0001:000001c0+ pixelRGBA
0001:00000230+ pixelRGBAWeight
0001:00000290+ hline
0001:000002c0+ hlineColor
0001:00000310+ hlineRGBA
0001:00000380+ vline
0001:000003b0+ vlineColor
0001:00000400+ vlineRGBA
0001:00000470+ rectangleColor
0001:000004c0+ rectangleRGBA
0001:00000620+ roundedRectangleColor
0001:00000680+ roundedRectangleRGBA
0001:00000a50+ roundedBoxColor
0001:00000ab0+ roundedBoxRGBA
0001:00000f20+ boxColor
0001:00000f70+ boxRGBA
0001:000010d0* line
0001:00001100+ lineColor
0001:00001150+ lineRGBA
0001:000011d0+ _aalineRGBA
0001:00001630+ aalineColor
0001:00001680+ aalineRGBA
0001:000016d0+ circleColor
0001:00001720+ circleRGBA
0001:00001770+ arcColor
0001:00001810+ arcRGBA
0001:00001ec0+ aacircleColor
0001:00001f10+ aacircleRGBA
0001:00001f60+ _drawQuadrants
0001:000020a0+ _ellipseRGBA
0001:000024c0+ ellipseColor
0001:00002510+ ellipseRGBA
0001:00002560+ filledCircleColor
0001:000025b0+ filledCircleRGBA
0001:00002600+ aaellipseColor
0001:00002650+ aaellipseRGBA
0001:00003090+ filledEllipseColor
0001:000030e0+ filledEllipseRGBA
0001:00003130+ _pieRGBA
0001:00003410+ pieColor
0001:00003470+ pieRGBA
0001:000034d0+ filledPieColor
0001:00003530+ filledPieRGBA
0001:00003590+ trigonColor
0001:000035f0+ trigonRGBA
0001:00003670+ aatrigonColor
0001:000036d0+ aatrigonRGBA
0001:00003750+ filledTrigonColor
0001:000037b0+ filledTrigonRGBA
0001:00003830+ polygonColor
0001:00003870+ polygon
0001:00003920+ polygonRGBA
0001:000039b0+ aapolygonColor
0001:000039f0+ aapolygonRGBA
0001:00003ad0+ _gfxPrimitivesCompareInt
0001:00003ae0+ filledPolygonRGBAMT
0001:00003e00+ filledPolygonColor
0001:00003e40+ filledPolygonRGBA
0001:00003e80+ _HLineTextured
0001:00004010+ texturedPolygonMT
0001:00004310+ texturedPolygon
0001:00004350+ gfxPrimitivesSetFont
0001:00004440+ gfxPrimitivesSetFontRotation
0001:000044c0+ characterRGBA
0001:000046c0+ characterColor
0001:00004710+ stringColor
0001:00004760+ stringRGBA
0001:00004800+ _evaluateBezier
0001:00004960+ bezierColor
0001:000049b0+ bezierRGBA
0001:00004c00+ thickLineColor
0001:00004c60+ thickLineRGBA
Module: SDL2_imageFilter.obj(/home/ozzie/Downloads/sdl-misc/SDL2-OS2/packages/SDL2_gfx/SDL2_imageFilter.c)
0001:00004f40+ SDL_imageFilterMMXdetect
0001:00004f50+ SDL_imageFilterMMXoff
0001:00004f60+ SDL_imageFilterMMXon
0001:00004f70+ SDL_imageFilterAdd
0001:00005010+ SDL_imageFilterMean
0001:000050b0+ SDL_imageFilterSub
0001:00005150+ SDL_imageFilterAbsDiff
0001:000051e0+ SDL_imageFilterMult
0001:00005280* SDL_imageFilterSubByteMMX
0001:00005280* SDL_imageFilterMultNorASM
0001:00005290+ SDL_imageFilterMultNor
0001:00005300+ SDL_imageFilterMultDivby2
0001:000053a0+ SDL_imageFilterMultDivby4
0001:00005450+ SDL_imageFilterBitAnd
0001:000054d0+ SDL_imageFilterBitOr
0001:00005550+ SDL_imageFilterDiv
0001:000055d0+ SDL_imageFilterBitNegation
0001:00005640+ SDL_imageFilterAddByte
0001:00005700+ SDL_imageFilterAddUint
0001:00005810+ SDL_imageFilterAddByteToHalf
0001:000058a0+ SDL_imageFilterSubByte
0001:00005950+ SDL_imageFilterSubUint
0001:00005a60+ SDL_imageFilterShiftRight
0001:00005af0+ SDL_imageFilterShiftRightUint
0001:00005ba0+ SDL_imageFilterMultByByte
0001:00005c60+ SDL_imageFilterShiftRightAndMultByByte
0001:00005d30+ SDL_imageFilterShiftLeftByte
0001:00005dc0+ SDL_imageFilterShiftLeftUint
0001:00005e70+ SDL_imageFilterShiftLeft
0001:00005f10+ SDL_imageFilterBinarizeUsingThreshold
0001:00005fb0+ SDL_imageFilterClipToRange
0001:00006070+ SDL_imageFilterNormalizeLinear
0001:00006110* SDL_imageFilterConvolveKernel3x3Divide
0001:00006150* SDL_imageFilterConvolveKernel5x5Divide
0001:00006190* SDL_imageFilterConvolveKernel7x7Divide
0001:000061d0* SDL_imageFilterConvolveKernel9x9Divide
0001:00006210* SDL_imageFilterConvolveKernel3x3ShiftRight
0001:00006250* SDL_imageFilterConvolveKernel5x5ShiftRight
0001:00006290* SDL_imageFilterConvolveKernel7x7ShiftRight
0001:000062d0* SDL_imageFilterConvolveKernel9x9ShiftRight
0001:00006310* SDL_imageFilterSobelX
0001:00006340* SDL_imageFilterSobelXShiftRight
0001:00006380* SDL_imageFilterRestoreStack
0001:00006380* SDL_imageFilterAlignStack
Module: SDL2_rotozoom.obj(/home/ozzie/Downloads/sdl-misc/SDL2-OS2/packages/SDL2_gfx/SDL2_rotozoom.c)
0001:00006390+ _colorkey
0001:000063b0+ _shrinkSurfaceRGBA
0001:00006510+ _shrinkSurfaceY
0001:000065f0+ _zoomSurfaceRGBA
0001:00006bf0+ _zoomSurfaceY
0001:00006db0+ _transformSurfaceRGBA
0001:000071b0+ transformSurfaceY
0001:00007300  rotateSurface90Degrees
0001:000076c0+ _rotozoomSurfaceSizeTrig
0001:00008440+ rotozoomSurfaceSizeXY
0001:000084a0+ rotozoomSurfaceSize
0001:000084f0+ rotozoomSurface
0001:00008520+ rotozoomSurfaceXY
0001:00008930+ zoomSurfaceSize
0001:00008a40+ zoomSurface
0001:00008c60+ shrinkSurface
Module: /home/ozzie/opt/watcom20/lib386/math387s.lib(fchop87)
0001:00008e50  __CHP
Module: /home/ozzie/opt/watcom20/lib386/os2/clib3s.lib(dstrt386)
0001:00008e68  __DLLstart_
0001:00008e68* __DLLstartw_
Module: /home/ozzie/opt/watcom20/lib386/os2/clib3s.lib(_8087)
0002:0000095c  __8087
0002:0000095d  __real87
Module: /home/ozzie/opt/watcom20/lib386/os2/clib3s.lib(nmalloc.c)
0001:00008ed0+ _use_os2_high_mem
0001:00008ef0* _os2lmalloc
0001:00008f30* _os2hmalloc
0001:00008f70  malloc
0001:00008f80  _nmalloc
0002:00000960  __nheapbeg
0002:00000964  __MiniHeapRover
0002:00000968  __LargestSizeB4MiniHeapRover
0002:00001594  _os2_use_obj_any
Module: /home/ozzie/opt/watcom20/lib386/os2/clib3s.lib(nfree.c)
0001:000090d0  free
0001:000090e0  _nfree
0002:00001598  __MiniHeapFreeRover
Module: /home/ozzie/opt/watcom20/lib386/os2/clib3s.lib(qsort.c)
0001:00009270  qsort
Module: /home/ozzie/opt/watcom20/lib386/os2/clib3s.lib(nrealloc.c)
0001:000099a0  realloc
0001:000099c0+ _nrealloc
Module: /home/ozzie/opt/watcom20/lib386/math387s.lib(pow87)
0001:00009c0b* pow
0001:00009aa0  IF@DPOW
0001:00009aa0* IF@POW
Module: /home/ozzie/opt/watcom20/lib386/math387s.lib(atan87)
0001:00009c4e* atan
0001:00009c61* atan2
0001:00009c24* IF@ATAN
0001:00009c24* IF@DATAN
0001:00009c39* IF@ATAN2
0001:00009c39  IF@DATAN2
Module: /home/ozzie/opt/watcom20/lib386/os2/clib3s.lib(fltused.c)
0002:0000096c  _fltused_
Module: /home/ozzie/opt/watcom20/lib386/os2/clib3s.lib(memset.c)
0001:00009c80  memset
Module: /home/ozzie/opt/watcom20/lib386/math387s.lib(ceil.c)
0001:00009ca0  ceil
Module: /home/ozzie/opt/watcom20/lib386/math387s.lib(floor.c)
0001:00009cd1  floor
Module: /home/ozzie/opt/watcom20/lib386/os2/clib3s.lib(dmaino32.c)
0001:00009d1f  __LibMain
Module: /home/ozzie/opt/watcom20/lib386/os2/clib3s.lib(segdefns)
0001:00000003  ___begtext
0002:00000000* __nullarea
0002:00000ebc  _Start_XI
0002:00000ed4  _End_XI
0002:00000ed4  _Start_YI
0002:00000ee0  _End_YI
Module: /home/ozzie/opt/watcom20/lib386/os2/clib3s.lib(chk8087.c)
0001:00009f60  _fpreset
0001:00009f80* __init_8087
0001:00009f90  __chk8087
Module: /home/ozzie/opt/watcom20/lib386/os2/clib3s.lib(crwdata)
0002:000009b2  _osmajor
0002:000009b3  _osminor
0002:00000980  _LpDllName
0002:00000984  _LpwCmdLine
0002:00000988  _LpwPgmName
0002:0000098c  _LpwDllName
0002:00000978  _LpCmdLine
0002:0000097c  _LpPgmName
0002:00000970* _dynend
0002:00000974  _curbrk
0002:00000990* _STACKLOW
0002:00000994* _STACKTOP
0002:00000998  __ASTACKSIZ
0002:0000099c  __ASTACKPTR
0002:000009a0* _cbyte
0002:000009a4* _cbyte2
0002:000009a8* _child
0002:000009ae  _Envptr
0002:000009ac  __no87
0002:000009b4* __FPE_handler
Module: /home/ozzie/opt/watcom20/lib386/os2/clib3s.lib(maino32.c)
0002:000009b8  __FirstThreadData
0002:000009bc  __GetThreadPtr
0002:000009c0  _AccessFileH
0002:000009c4  _ReleaseFileH
0002:000009c8  _AccessIOB
0002:000009cc  _ReleaseIOB
0002:000009d0  _AccessNHeap
0002:000009d4  _AccessFHeap
0002:000009d8  _ReleaseNHeap
0002:000009dc  _ReleaseFHeap
0002:000009e0  _AccessTDList
0001:00009fe0  __threadstack
0001:00009fe7  __threadid
0001:00009fee* __OS2MainInit
0001:0000a05f  __OS2Init
0001:0000a0a0  __OS2Fini
0001:0000a0a8  __shutdown_stack_checking
0001:0000a0bd  __exit
0002:000009e4  _ReleaseTDList
0002:000009e8  __sig_init_rtn
0002:000009ec  __sig_fini_rtn
0002:000009f0  __threadstksize
0002:000009f4+ __process_fini
0002:000018ac  __Is_DLL
0002:000018b0+ __saved_CS
Module: /home/ozzie/opt/watcom20/lib386/os2/clib3s.lib(grownear.c)
0001:0000a300  __ExpandDGROUP
0002:000009f8  _os2_obj_any_supported
Module: /home/ozzie/opt/watcom20/lib386/os2/clib3s.lib(nmemneed.c)
0001:0000a320  __nmemneed
Module: /home/ozzie/opt/watcom20/lib386/os2/clib3s.lib(mem.c)
0001:0000a330  __MemAllocator
0001:0000a3e0  __MemFree
Module: /home/ozzie/opt/watcom20/lib386/os2/clib3s.lib(nmsize.c)
0001:0000a520  _nmsize
0001:0000a520* _msize
Module: /home/ozzie/opt/watcom20/lib386/os2/clib3s.lib(nexpand.c)
0001:0000a530* _expand
0001:0000a550+ __HeapManager_expand
0001:0000a710  _nexpand
Module: /home/ozzie/opt/watcom20/lib386/os2/clib3s.lib(chipvar)
0002:000009fc* ___chipbug
0002:000009fc  __chipbug
Module: /home/ozzie/opt/watcom20/lib386/math387s.lib(pow87e.c)
0001:0000a759  __pow87_err
Module: /home/ozzie/opt/watcom20/lib386/math387s.lib(exp87)
0001:0000a865* exp
0001:0000a7ec* __@DEXP1
0001:0000a7f4* IF@EXP
0001:0000a7f4* IF@DEXP
0001:0000a7f6  __@DEXP
Module: /home/ozzie/opt/watcom20/lib386/os2/clib3s.lib(chipd32.asm)
0001:0000a98f  __fdiv_fpr
0001:0000ae51* __fdiv_chk
0001:0000ae64* __fdiv_m32
0001:0000aeb1* __fdiv_m64
0001:0000aefe* __fdiv_m32r
0001:0000af4b* __fdiv_m64r
Module: /home/ozzie/opt/watcom20/lib386/os2/clib3s.lib(chipw32.asm)
0001:0000af98  __fpatan_wrap
Module: /home/ozzie/opt/watcom20/lib386/os2/clib3s.lib(setefg.c)
0001:0000afd0  __setEFGfmt
Module: /home/ozzie/opt/watcom20/lib386/os2/clib3s.lib(__stos)
0001:0000aff0  __STOSB
0001:0000b027* __STOSD
Module: /home/ozzie/opt/watcom20/lib386/math387s.lib(modf87)
0001:0000b094  modf
Module: /home/ozzie/opt/watcom20/lib386/os2/clib3s.lib(lmaino32.c)
0001:0000b0c0  LibMain
Module: /home/ozzie/opt/watcom20/lib386/os2/clib3s.lib(initrtns.c)
0001:0000b0f0  __InitRtns
0001:0000b150  __FiniRtns
Module: /home/ozzie/opt/watcom20/lib386/os2/clib3s.lib(mthread.c)
0001:0000b200+ __CloseSemaphore
0001:0000b230+ __AccessSemaphore
0001:0000b2a0+ __ReleaseSemaphore
0001:0000b300+ __AccessIOB
0001:0000b310+ __ReleaseIOB
0001:0000b320+ __AccessFileH
0001:0000b340+ __ReleaseFileH
0001:0000b360+ __AccessNHeap
0001:0000b370+ __ReleaseNHeap
0001:0000b380+ __AccessFHeap
0001:0000b390+ __ReleaseFHeap
0001:0000b3a0+ __AccessTDList
0001:0000b3b0+ __ReleaseTDList
0001:0000b3c0+ __MultipleThread
0001:0000b400  __AllocInitThreadData
0001:0000b450  __FreeInitThreadData
0001:0000b470  __OS2AddThread
0001:0000b4f0  __OS2RemoveThread
0001:0000b540  __InitMultipleThread
0002:00000a10+ __AccessSema4
0002:00000a14+ __ReleaseSema4
0002:00000a18+ __CloseSema4
Module: /home/ozzie/opt/watcom20/lib386/os2/clib3s.lib(ddgrpo32.c)
0001:0000b7b0  __disallow_single_dgroup
Module: /home/ozzie/opt/watcom20/lib386/os2/clib3s.lib(cinit.c)
0001:0000ba00  __CommonInit
0002:00001dc0  __hmodule
Module: /home/ozzie/opt/watcom20/lib386/os2/clib3s.lib(atouni.c)
0001:0000ba10  _atouni
Module: /home/ozzie/opt/watcom20/lib386/os2/clib3s.lib(trdalloc.c)
0001:0000ba50  __InitThreadProcessing
0001:0000ba70  __FiniThreadProcessing
0002:00001dc4  __ThreadData
Module: /home/ozzie/opt/watcom20/lib386/os2/clib3s.lib(maxthrds.c)
0002:00000a1c  __MaxThreads
Module: /home/ozzie/opt/watcom20/lib386/os2/clib3s.lib(dosseg)
0000:00001234  __DOSseg__
Module: /home/ozzie/opt/watcom20/lib386/os2/clib3s.lib(8087cw.c)
0002:00000a20  __8087cw
Module: /home/ozzie/opt/watcom20/lib386/os2/clib3s.lib(init8087)
0001:0000bad0  __x87id
Module: /home/ozzie/opt/watcom20/lib386/os2/clib3s.lib(amblksiz.c)
0002:00000a24  _amblksiz
Module: /home/ozzie/opt/watcom20/lib386/os2/clib3s.lib(heapen.c)
0002:00000a28  __heap_enabled
Module: /home/ozzie/opt/watcom20/lib386/os2/clib3s.lib(nheapmin.c)
0001:0000bb10  _nheapshrink
0001:0000bb10* _nheapmin
0001:0000bb10* _heapmin
0001:0000bb10  _heapshrink
Module: /home/ozzie/opt/watcom20/lib386/os2/clib3s.lib(chipbug.c)
0001:0000bc00  __verify_pentium_fdiv_bug
Module: /home/ozzie/opt/watcom20/lib386/math387s.lib(math2err.c)
0001:0000bcc2  __math1err
0001:0000bcf5  __math2err
Module: /home/ozzie/opt/watcom20/lib386/math387s.lib(math87e.c)
0001:0000be1e  __math87_err
Module: /home/ozzie/opt/watcom20/lib386/os2/clib3s.lib(chipa32.asm)
0001:0000bea0  __fpatan_chk
Module: /home/ozzie/opt/watcom20/lib386/os2/clib3s.lib(noefgfmt.c)
0002:00000a88  __EFG_printf
0002:00000a8c  __EFG_scanf
Module: /home/ozzie/opt/watcom20/lib386/math387s.lib(efgfmt.c)
0001:0000c0f0  _EFG_Format
Module: /home/ozzie/opt/watcom20/lib386/math387s.lib(cnvs2d.c)
0001:0000c270  __cnvs2d
Module: /home/ozzie/opt/watcom20/lib386/os2/clib3s.lib(dllmno32.c)
0001:0000c2a0  DllMain
Module: /home/ozzie/opt/watcom20/lib386/os2/clib3s.lib(xmsgo32.c)
0001:0000c2b0+ __exit_with_msg
0001:0000c300  __fatal_runtime_error
Module: /home/ozzie/opt/watcom20/lib386/os2/clib3s.lib(trdlist.c)
0001:0000c380  __GetThreadData
0001:0000c4b0  __ReallocThreadData
0001:0000c620  __AddThreadData
0001:0000c6a0  __RemoveThreadData
0001:0000c700* __ResizeThreadDataList
0001:0000c750  __FreeThreadDataList
0001:0000c790* __ActiveThreads
Module: /home/ozzie/opt/watcom20/lib386/os2/clib3s.lib(mthrdini.c)
0001:0000c7b0  __InitThreadData
0002:00000a94  __ThreadDataSize
Module: /home/ozzie/opt/watcom20/lib386/os2/clib3s.lib(calloc.c)
0001:0000c7d0  calloc
Module: /home/ozzie/opt/watcom20/lib386/os2/clib3s.lib(register.c)
0001:0000c810  __initthread
0001:0000c820* _beginthread
0001:0000c840  _endthread
0001:0000c850* __RegisterThreadData
Module: /home/ozzie/opt/watcom20/lib386/os2/clib3s.lib(thrdmax.c)
0001:0000c8a0  __GETMAXTHREADS
Module: /home/ozzie/opt/watcom20/lib386/os2/clib3s.lib(hugeval.c)
0001:0000c8b0  _HugeValue
Module: /home/ozzie/opt/watcom20/lib386/math387s.lib(_matherr.c)
0001:0000c95e* _set_matherr
0001:0000c968+ __rterrmsg
0001:0000c9b5  _matherr
0002:00000aa4+ __matherr_handler
Module: /home/ozzie/opt/watcom20/lib386/os2/clib3s.lib(rtcntrl.c)
0001:0000ca10* _SetLD64bit
0001:0000ca20* _SetLD80bit
0001:0000ca30  _LDisDouble
Module: /home/ozzie/opt/watcom20/lib386/math387s.lib(ldcvt.c)
0001:0000cb25  _LDScale10x
0001:0000d091  __LDcvt
Module: /home/ozzie/opt/watcom20/lib386/math387s.lib(strtod.c)
0001:0000da44+ __Strtold
0001:0000dbb8  strtod
Module: /home/ozzie/opt/watcom20/lib386/os2/clib3s.lib(libmno32.c)
0001:0000dd20  __dll_initialize
Module: /home/ozzie/opt/watcom20/lib386/os2/clib3s.lib(libterm.c)
0001:0000dd30  __dll_terminate
Module: /home/ozzie/opt/watcom20/lib386/os2/clib3s.lib(enterdb.c)
0001:0000dd40  __EnterWVIDEO
0002:00000b54+ __WD_Present
Module: /home/ozzie/opt/watcom20/lib386/os2/clib3s.lib(thredo32.c)
0001:0000de10  __CBeginThread
0001:0000dec0  __CEndThread
Module: /home/ozzie/opt/watcom20/lib386/math387s.lib(__mtherr)
0001:0000ded8  __matherr
Module: /home/ozzie/opt/watcom20/lib386/os2/clib3s.lib(iobaddr.c)
0001:0000dee0  __get_std_stream
0001:0000df00* __get_std_file
Module: /home/ozzie/opt/watcom20/lib386/os2/clib3s.lib(fputs.c)
0001:0000df10  fputs
Module: /home/ozzie/opt/watcom20/lib386/os2/clib3s.lib(fputc.c)
0001:0000dfd0  fputc
Module: /home/ozzie/opt/watcom20/lib386/os2/clib3s.lib(seterrno.c)
0001:0000e0cb  __set_errno
0001:0000e0dc  __set_EDOM
0001:0000e0ea  __set_ERANGE
0001:0000e0f8* __set_EINVAL
0001:0000e10b  __set_doserrno
Module: /home/ozzie/opt/watcom20/lib386/math387s.lib(ldclass.c)
0001:0000e11c  __LDClass
0001:0000e16a* _FLClass
Module: /home/ozzie/opt/watcom20/lib386/os2/clib3s.lib(istable.c)
0001:0000e180  _IsTable
Module: /home/ozzie/opt/watcom20/lib386/os2/clib3s.lib(tolower.c)
0001:0000e290  tolower
Module: /home/ozzie/opt/watcom20/lib386/math387s.lib(bufld386)
0001:0000e2a4  __ZBuf2LD
Module: /home/ozzie/opt/watcom20/lib386/math387s.lib(inf_nan.c)
0001:0000e347* __f_infinity
0001:0000e34b* __f_posqnan
0001:0000e34f  __d_infinity
0001:0000e357  __d_posqnan
0001:0000e35f* __ld_infinity
0001:0000e367* __ld_posqnan
Module: /home/ozzie/opt/watcom20/lib386/math387s.lib(matherr.c)
0001:0000e36f  matherr
Module: /home/ozzie/opt/watcom20/lib386/os2/clib3s.lib(iob.c)
0002:00000b58  __iob
0002:00001dcc  __ClosedStreams
0002:00001dd0  __OpenStreams
Module: /home/ozzie/opt/watcom20/lib386/os2/clib3s.lib(flush.c)
0001:0000e380  __flush
Module: /home/ozzie/opt/watcom20/lib386/os2/clib3s.lib(ioalloc.c)
0001:0000e490  __ioalloc
Module: /home/ozzie/opt/watcom20/lib386/os2/clib3s.lib(initfile.c)
0001:0000e560  __InitFiles
Module: /home/ozzie/opt/watcom20/lib386/os2/clib3s.lib(ioexit.c)
0001:0000e660* fcloseall
0001:0000e670  __full_io_exit
Module: /home/ozzie/opt/watcom20/lib386/os2/clib3s.lib(__lseek.c)
0001:0000e680  __lseek
Module: /home/ozzie/opt/watcom20/lib386/os2/clib3s.lib(fsync.c)
0001:0000e6c0  fsync
Module: /home/ozzie/opt/watcom20/lib386/os2/clib3s.lib(qwrit.c)
0001:0000e6f0  __qwrite
Module: /home/ozzie/opt/watcom20/lib386/os2/clib3s.lib(chktty.c)
0001:0000e7b0  __chktty
Module: /home/ozzie/opt/watcom20/lib386/os2/clib3s.lib(fclose.c)
0001:0000e7f0+ __doclose
0001:0000e8b0  __shutdown_stream
0001:0000e8e0* fclose
0002:00001dd4+ __RmTmpFileFn
Module: /home/ozzie/opt/watcom20/lib386/os2/clib3s.lib(freefp.c)
0001:0000e920  __freefp
0001:0000e970  __purgefp
Module: /home/ozzie/opt/watcom20/lib386/os2/clib3s.lib(dosret.c)
0001:0000e9b0* _dosretax
0001:0000e9d0* _dosret0
0001:0000e9f0  __set_errno_dos
0001:0000ea30* __set_errno_dos_reterr
Module: /home/ozzie/opt/watcom20/lib386/os2/clib3s.lib(iomode.c)
0001:0000ea50  __GetIOMode
0001:0000ea70  __SetIOMode_nogrow
0002:00000e64+ __NFiles
0002:00000e68+ __init_mode
0002:00000eb8+ __io_mode
Module: /home/ozzie/opt/watcom20/lib386/os2/clib3s.lib(isattos2.c)
0001:0000ea90  isatty
Module: /home/ozzie/opt/watcom20/lib386/os2/clib3s.lib(_clseos2.c)
0001:0000eac0  __close


                        +----------------------+
                        |   Imported Symbols   |
                        +----------------------+

Symbol                              Module
======                              ======

SDL_GetTicks                        SDL2
SDL_Delay                           SDL2
SDL_RenderDrawPoint                 SDL2
SDL_SetRenderDrawBlendMode          SDL2
SDL_SetRenderDrawColor              SDL2
SDL_RenderDrawLine                  SDL2
SDL_RenderDrawRect                  SDL2
SDL_RenderFillRect                  SDL2
SDL_RenderDrawLines                 SDL2
SDL_RenderCopy                      SDL2
SDL_CreateTextureFromSurface        SDL2
SDL_SetTextureBlendMode             SDL2
SDL_RenderPresent                   SDL2
SDL_DestroyTexture                  SDL2
SDL_CreateRGBSurface                SDL2
SDL_FreeSurface                     SDL2
SDL_SetTextureColorMod              SDL2
SDL_SetTextureAlphaMod              SDL2
SDL_HasMMX                          SDL2
SDL_GetColorKey                     SDL2
SDL_LockSurface                     SDL2
SDL_SetError                        SDL2
SDL_UnlockSurface                   SDL2
SDL_UpperBlit                       SDL2
DosGetInfoBlocks                    DOSCALLS
DosQueryModuleName                  DOSCALLS
DosDevConfig                        DOSCALLS
DosQuerySysInfo                     DOSCALLS
DosExit                             DOSCALLS
DosAllocMem                         DOSCALLS
DosCloseMutexSem                    DOSCALLS
DosCreateMutexSem                   DOSCALLS
DosRequestMutexSem                  DOSCALLS
DosReleaseMutexSem                  DOSCALLS
DosLoadModule                       DOSCALLS
DosQueryProcAddr                    DOSCALLS
DosOpen                             DOSCALLS
DosWrite                            DOSCALLS
DosClose                            DOSCALLS
DosFreeMem                          DOSCALLS
DosPostEventSem                     DOSCALLS
DosCreateEventSem                   DOSCALLS
DosCreateThread                     DOSCALLS
DosCloseEventSem                    DOSCALLS
DosWaitEventSem                     DOSCALLS
DosSetFilePtr                       DOSCALLS
DosResetBuffer                      DOSCALLS
DosQueryHType                       DOSCALLS


                        +--------------------+
                        |   Libraries Used   |
                        +--------------------+

../../lib/SDL2.lib
/home/ozzie/opt/watcom20/lib386/os2/clib3s.lib
/home/ozzie/opt/watcom20/lib386/math387s.lib
/home/ozzie/opt/watcom20/lib386/os2/os2386.lib


                        +-----------------------+
                        |   Linker Statistics   |
                        +-----------------------+

Stack size:  0000 (0.)
Memory size:  000108e5 (67813.)
Link time: 00:00.01
