Open Watcom Linker Version 2.0 beta Apr 27 2014 22:18:18 (32-bit)
Copyright (c) 2002-2014 The Open Watcom Contributors. All Rights Reserved.
Portions Copyright (c) 1985-2002 Sybase, Inc. All Rights Reserved.
Created on:       16/02/23 23:17:59
Executable Image: ..\..\dll\sdl2img.dll
creating an OS/2 and eComStation dynamic link library
symbol __set_commode_ removed
symbol _heapenable removed
symbol __set_handles removed
symbol _grow_handles removed


                        +------------+
                        |   Groups   |
                        +------------+

Group                           Address              Size
=====                           =======              ====

DGROUP                          0003:00000000        0003cba0



                        +--------------+
                        |   Segments   |
                        +--------------+

Segment                Class          Group          Address         Size
=======                =====          =====          =======         ====

_TEXT16                CODE           AUTO           0001:00000000   00000068
BEGTEXT                CODE           AUTO           0002:00000000   00000007
_TEXT                  CODE           AUTO           0002:00000010   0007e121
_NULL                  BEGDATA        DGROUP         0003:00000000   00000004
_AFTERNULL             BEGDATA        DGROUP         0003:00000004   00000000
CONST                  DATA           DGROUP         0003:00000004   00009a40
CONST2                 DATA           DGROUP         0003:00009a50   0001f2d4
_DATA                  DATA           DGROUP         0003:00028d24   00002944
XIB                    DATA           DGROUP         0003:0002b668   00000000
XI                     DATA           DGROUP         0003:0002b668   00000048
XIE                    DATA           DGROUP         0003:0002b6b0   00000000
YIB                    DATA           DGROUP         0003:0002b6b0   00000000
YI                     DATA           DGROUP         0003:0002b6b0   00000018
YIE                    DATA           DGROUP         0003:0002b6c8   00000000
TIB                    DATA           DGROUP         0003:0002b6c8   00000000
TI                     DATA           DGROUP         0003:0002b6c8   00000000
TIE                    DATA           DGROUP         0003:0002b6c8   00000000
DATA                   DATA           DGROUP         0003:0002b6c8   00000000
DATA32                 DATA           DGROUP         0003:0002b6c8   000002b4
CONST32                CONST          DGROUP         0003:0002b97c   00000000
_BSS                   BSS            DGROUP         0003:0002b97c   0001121c
BSS32                  BSS            DGROUP         0003:0003cb98   00000000
STACK                  STACK          DGROUP         0003:0003cba0   00000000


                        +----------------+
                        |   Memory Map   |
                        +----------------+

* = unreferenced symbol
+ = symbol only referenced locally

Address        Symbol
=======        ======

Module: IMG.obj(D:\home\Digi\projects\port\SDL2\packages\SDL2_image-2.0.1\IMG.c)
0002:00000010+ IMG_Linked_Version
0002:00000030  IMG_Init
0002:000000c0+ IMG_Quit
0002:00000100+ IMG_Load
0002:00000150+ IMG_Load_RW
0002:000001d0+ IMG_LoadTyped_RW
0002:000002c0+ IMG_LoadTexture
0002:00000300+ IMG_LoadTexture_RW
0002:00000340+ IMG_LoadTextureTyped_RW
Module: IMG_bmp.obj(D:\home\Digi\projects\port\SDL2\packages\SDL2_image-2.0.1\IMG_bmp.c)
0002:00000380  IMG_isBMP
0002:00000480  IMG_isICO
0002:000004a0  IMG_isCUR
0002:000014b0  IMG_LoadBMP_RW
0002:000014d0  IMG_LoadICO_RW
0002:000014f0  IMG_LoadCUR_RW
Module: IMG_gif.obj(D:\home\Digi\projects\port\SDL2\packages\SDL2_image-2.0.1\IMG_gif.c)
0002:00001510  IMG_isGIF
0002:000015b0  IMG_LoadGIF_RW
Module: IMG_jpg.obj(D:\home\Digi\projects\port\SDL2\packages\SDL2_image-2.0.1\IMG_jpg.c)
0002:000021d0  IMG_InitJPG
0002:00002240  IMG_QuitJPG
0002:00002260  IMG_isJPG
0002:000024e0  IMG_LoadJPG_RW
Module: IMG_lbm.obj(D:\home\Digi\projects\port\SDL2\packages\SDL2_image-2.0.1\IMG_lbm.c)
0002:00002730  IMG_isLBM
0002:000027e0  IMG_LoadLBM_RW
Module: IMG_pcx.obj(D:\home\Digi\projects\port\SDL2\packages\SDL2_image-2.0.1\IMG_pcx.c)
0002:000033e0  IMG_isPCX
0002:00003470  IMG_LoadPCX_RW
Module: IMG_png.obj(D:\home\Digi\projects\port\SDL2\packages\SDL2_image-2.0.1\IMG_png.c)
0002:000038f0  IMG_InitPNG
0002:000039d0  IMG_QuitPNG
0002:000039f0  IMG_isPNG
0002:00003aa0  IMG_LoadPNG_RW
0002:00006d40+ IMG_SavePNG
0002:00006d70+ IMG_SavePNG_RW
Module: IMG_pnm.obj(D:\home\Digi\projects\port\SDL2\packages\SDL2_image-2.0.1\IMG_pnm.c)
0002:00006e60  IMG_isPNM
0002:00006f90  IMG_LoadPNM_RW
Module: IMG_tga.obj(D:\home\Digi\projects\port\SDL2\packages\SDL2_image-2.0.1\IMG_tga.c)
0002:00007310  IMG_LoadTGA_RW
Module: IMG_tif.obj(D:\home\Digi\projects\port\SDL2\packages\SDL2_image-2.0.1\IMG_tif.c)
0002:00007860  IMG_InitTIF
0002:000078c0  IMG_QuitTIF
0002:000079b0  IMG_isTIF
0002:00007a40  IMG_LoadTIF_RW
Module: IMG_xcf.obj(D:\home\Digi\projects\port\SDL2\packages\SDL2_image-2.0.1\IMG_xcf.c)
0002:00007be0  IMG_isXCF
0002:000088b0  IMG_LoadXCF_RW
Module: IMG_xpm.obj(D:\home\Digi\projects\port\SDL2\packages\SDL2_image-2.0.1\IMG_xpm.c)
0002:00008c70  IMG_isXPM
0002:00009560  IMG_LoadXPM_RW
0002:00009580+ IMG_ReadXPMFromArray
Module: IMG_xv.obj(D:\home\Digi\projects\port\SDL2\packages\SDL2_image-2.0.1\IMG_xv.c)
0002:00009700  IMG_isXV
0002:00009760  IMG_LoadXV_RW
Module: IMG_webp.obj(D:\home\Digi\projects\port\SDL2\packages\SDL2_image-2.0.1\IMG_webp.c)
0002:00009850  IMG_InitWEBP
0002:00009870  IMG_QuitWEBP
0002:00009880  IMG_LoadWEBP_RW
0002:00009880  IMG_isWEBP
Module: d:\dev\watcom\lib386\os2\clib3s.lib(dstrt386)
0002:00009884  __DLLstart_
0002:00009884* __DLLstartw_
Module: ..\..\lib\jpeg.lib(D:\home\Digi\projects\port\SDL2\packages\jpeg-9a\jdapimin.c)
0002:000098e0  jpeg_CreateDecompress
0002:000099e0  jpeg_destroy_decompress
0002:00009a00* jpeg_abort_decompress
0002:00009c40  jpeg_read_header
0002:00009ce0+ jpeg_consume_input
0002:00009d80* jpeg_input_complete
0002:00009dc0* jpeg_has_multiple_scans
0002:00009e00  jpeg_finish_decompress
Module: ..\..\lib\jpeg.lib(D:\home\Digi\projects\port\SDL2\packages\jpeg-9a\jdapistd.c)
0002:00009ec0  jpeg_start_decompress
0002:0000a0b0  jpeg_read_scanlines
0002:0000a150* jpeg_read_raw_data
0002:0000a200* jpeg_start_output
0002:0000a270* jpeg_finish_output
Module: ..\..\lib\jpeg.lib(D:\home\Digi\projects\port\SDL2\packages\jpeg-9a\jdmarker.c)
0002:0000c950  jpeg_resync_to_restart
0002:0000cac0  jinit_marker_reader
0002:0000cb40* jpeg_save_markers
0002:0000cc00* jpeg_set_marker_processor
Module: ..\..\lib\jpeg.lib(D:\home\Digi\projects\port\SDL2\packages\jpeg-9a\jerror.c)
0002:0000cde0  jpeg_std_error
0003:0000a524+ jpeg_std_message_table
Module: ..\..\lib\jpeg.lib(D:\home\Digi\projects\port\SDL2\packages\jpeg-9a\jdmaster.c)
0002:0000cf40  jpeg_calc_output_dimensions
0002:0000d5f0* jpeg_new_colormap
0002:0000d670  jinit_master_decompress
Module: d:\dev\watcom\lib386\os2\clib3s.lib(stjmp386.asm)
0002:0000d6ac  _setjmp
0002:0000d6e5  longjmp
Module: ..\..\lib\libpng.lib(D:\home\Digi\projects\port\SDL2\packages\lpng1612\pngread.c)
0002:0000d760  png_create_read_struct
0002:0000d790+ png_create_read_struct_2
0002:0000d7f0  png_read_info
0002:0000db10  png_read_update_info
0002:0000db50+ png_start_read_image
0002:0000dce0+ png_read_row
0002:0000e0a0* png_read_rows
0002:0000e150  png_read_image
0002:0000e210+ png_read_end
0002:0000e760  png_destroy_read_struct
0002:0000e7b0* png_set_read_status_fn
0002:0000e7d0* png_read_png
0002:0000ec00* png_image_begin_read_from_stdio
0002:0000ec70* png_image_begin_read_from_file
0002:0000edc0* png_image_begin_read_from_memory
0002:00011a10* png_image_finish_read
Module: ..\..\lib\libpng.lib(D:\home\Digi\projects\port\SDL2\packages\lpng1612\pngget.c)
0002:00011b90  png_get_valid
0002:00011bb0  png_get_rowbytes
0002:00011bd0* png_get_rows
0002:00011bf0* png_get_image_width
0002:00011c10* png_get_image_height
0002:00011c30* png_get_bit_depth
0002:00011c50* png_get_color_type
0002:00011c70* png_get_filter_type
0002:00011c90* png_get_interlace_type
0002:00011cb0* png_get_compression_type
0002:00011cd0+ png_get_x_pixels_per_meter
0002:00011d00+ png_get_y_pixels_per_meter
0002:00011d30+ png_get_pixels_per_meter
0002:00011d70* png_get_pixel_aspect_ratio
0002:00011dd0* png_get_pixel_aspect_ratio_fixed
0002:00011e40+ png_get_x_offset_microns
0002:00011e70+ png_get_y_offset_microns
0002:00011ea0* png_get_x_offset_pixels
0002:00011ed0* png_get_y_offset_pixels
0002:00011f40* png_get_pixels_per_inch
0002:00011f60* png_get_x_pixels_per_inch
0002:00011f80* png_get_y_pixels_per_inch
0002:00011fc0* png_get_x_offset_inches_fixed
0002:00011ff0* png_get_y_offset_inches_fixed
0002:00012020* png_get_x_offset_inches
0002:00012050* png_get_y_offset_inches
0002:00012080* png_get_pHYs_dpi
0002:00012150  png_get_channels
0002:00012170* png_get_signature
0002:00012190* png_get_bKGD
0002:000121c0* png_get_cHRM
0002:00012290* png_get_cHRM_XYZ
0002:00012380* png_get_cHRM_XYZ_fixed
0002:00012430* png_get_cHRM_fixed
0002:000124e0* png_get_gAMA_fixed
0002:00012510* png_get_gAMA
0002:00012550* png_get_sRGB
0002:00012590* png_get_iCCP
0002:00012620* png_get_sPLT
0002:00012650* png_get_hIST
0002:00012680  png_get_IHDR
0002:00012740* png_get_oFFs
0002:000127a0* png_get_pCAL
0002:00012860* png_get_sCAL_fixed
0002:00012920* png_get_sCAL
0002:000129a0* png_get_sCAL_s
0002:000129f0* png_get_pHYs
0002:00012a50  png_get_PLTE
0002:00012a90* png_get_sBIT
0002:00012ac0* png_get_text
0002:00012b10* png_get_tIME
0002:00012b40  png_get_tRNS
0002:00012bc0* png_get_unknown_chunks
0002:00012bf0* png_get_rgb_to_gray_status
0002:00012c10* png_get_user_chunk_ptr
0002:00012c20* png_get_compression_buffer_size
0002:00012c40* png_get_user_width_max
0002:00012c50* png_get_user_height_max
0002:00012c60* png_get_chunk_cache_max
0002:00012c70* png_get_chunk_malloc_max
0002:00012c80* png_get_io_state
0002:00012c90* png_get_io_chunk_type
0002:00012ca0* png_get_palette_max
Module: ..\..\lib\libpng.lib(D:\home\Digi\projects\port\SDL2\packages\lpng1612\png.c)
0002:00012cd0* png_set_sig_bytes
0002:00012d10  png_sig_cmp
0002:00012d80+ png_zalloc
0002:00012dd0  png_zfree
0002:00012df0  png_reset_crc
0002:00012e10  png_calculate_crc
0002:00012e90+ png_user_version_check
0002:00012fe0  png_create_png_struct
0002:00013100  png_create_info_struct
0002:00013140  png_destroy_info_struct
0002:00013190* png_info_init_3
0002:000131e0* png_data_freer
0002:00013230  png_free_data
0002:00013680  png_get_io_ptr
0002:00013690* png_init_io
0002:000136a0  png_save_int_32
0002:000136e0+ png_convert_to_rfc1123_buffer
0002:00013870* png_convert_to_rfc1123
0002:000138b0* png_get_copyright
0002:000138c0* png_get_libpng_ver
0002:000138e0* png_get_header_ver
0002:000138f0* png_get_header_version
0002:00013920* png_build_grayscale_palette
0002:00013990  png_handle_as_unknown
0002:00013a00  png_chunk_unknown_handling
0002:00013a40* png_reset_zstream
0002:00013a60* png_access_version_number
0002:00013a90  png_zstream_error
0002:00013bd0  png_colorspace_set_gamma
0002:00013c40  png_colorspace_sync_info
0002:00013ca0  png_colorspace_sync
0002:000146c0  png_colorspace_set_chromaticities
0002:00014730  png_colorspace_set_endpoints
0002:00014a00  png_colorspace_set_sRGB
0002:00014b00  png_icc_check_length
0002:00014b30  png_icc_check_header
0002:00014ed0  png_icc_check_tag_table
0002:000152a0  png_icc_set_sRGB
0002:00015300  png_colorspace_set_ICC
0002:00015380  png_colorspace_set_rgb_coefficients
0002:00015520  png_check_IHDR
0002:000156e0  png_check_fp_number
0002:00015830  png_check_fp_string
0002:00015910  png_ascii_from_fp
0002:00015d00  png_ascii_from_fixed
0002:00015df0  png_fixed
0002:00015e70  png_muldiv
0002:00015f30  png_muldiv_warn
0002:00015f80  png_reciprocal
0002:00015ff0  png_gamma_significant
0002:000160a0  png_reciprocal2
0002:00016130  png_gamma_8bit_correct
0002:000161a0  png_gamma_16bit_correct
0002:00016210  png_gamma_correct
0002:00016590  png_destroy_gamma_table
0002:00016710  png_build_gamma_table
0002:00016940* png_set_option
0002:00016a50  png_image_free
0002:00016a80  png_image_error
0003:0000a8a4  png_sRGB_table
0003:0000aaa4  png_sRGB_base
0003:0000aea4  png_sRGB_delta
Module: ..\..\lib\libpng.lib(D:\home\Digi\projects\port\SDL2\packages\lpng1612\pngrtran.c)
0002:00016ae0* png_set_crc_action
0002:00016bc0  png_set_background_fixed
0002:00016c40* png_set_background
0002:00016c80  png_set_scale_16
0002:00016ca0  png_set_strip_16
0002:00016cc0  png_set_strip_alpha
0002:00016de0  png_set_alpha_mode_fixed
0002:00016f00* png_set_alpha_mode
0002:00016f30* png_set_quantize
0002:00017880+ png_set_gamma_fixed
0002:00017900* png_set_gamma
0002:00017940  png_set_expand
0002:00017960* png_set_palette_to_rgb
0002:00017980+ png_set_expand_gray_1_2_4_to_8
0002:000179a0  png_set_tRNS_to_alpha
0002:000179c0  png_set_expand_16
0002:000179e0  png_set_gray_to_rgb
0002:00017a10  png_set_rgb_to_gray_fixed
0002:00017b00* png_set_rgb_to_gray
0002:00017b50* png_set_read_user_transform_fn
0002:00017d90  png_init_read_transformations
0002:000188e0  png_read_transform_info
0002:0001c300  png_do_read_transformations
Module: ..\..\lib\libpng.lib(D:\home\Digi\projects\port\SDL2\packages\lpng1612\pngtrans.c)
0002:0001c6f0  png_set_bgr
0002:0001c700  png_set_swap
0002:0001c720  png_set_packing
0002:0001c740  png_set_packswap
0002:0001c760  png_set_shift
0002:0001c780  png_set_interlace_handling
0002:0001c7b0  png_set_filler
0002:0001c840  png_set_add_alpha
0002:0001c870  png_set_swap_alpha
0002:0001c880  png_set_invert_alpha
0002:0001c890  png_set_invert_mono
0002:0001c8a0  png_do_invert
0002:0001c910  png_do_swap
0002:0001c950  png_do_packswap
0002:0001c9a0  png_do_strip_channel
0002:0001cb00  png_do_bgr
0002:0001cbf0  png_do_check_palette_indexes
0002:0001cd80* png_set_user_transform_info
0002:0001cdc0* png_get_user_transform_ptr
0002:0001cdd0* png_get_current_row_number
0002:0001cdf0* png_get_current_pass_number
Module: ..\..\lib\libpng.lib(D:\home\Digi\projects\port\SDL2\packages\lpng1612\pngrio.c)
0002:0001ce10  png_read_data
0002:0001ce40+ png_default_read_data
0002:0001ce80  png_set_read_fn
Module: ..\..\lib\libpng.lib(D:\home\Digi\projects\port\SDL2\packages\lpng1612\pngerror.c)
0002:0001ced0  png_error
0002:0001cf00  png_safecat
0002:0001cf60  png_format_number
0002:0001d080  png_warning
0002:0001d0e0  png_warning_parameter
0002:0001d110* png_warning_parameter_unsigned
0002:0001d150  png_warning_parameter_signed
0002:0001d1b0  png_formatted_warning
0002:0001d280  png_benign_error
0002:0001d2e0  png_app_warning
0002:0001d310  png_app_error
0002:0001d420  png_chunk_error
0002:0001d460  png_chunk_warning
0002:0001d4a0  png_chunk_benign_error
0002:0001d4d0  png_chunk_report
0002:0001d520  png_fixed_error
0002:0001d590  png_set_longjmp_fn
0002:0001d620  png_free_jmpbuf
0002:0001d6e0+ png_longjmp
0002:0001d740  png_set_error_fn
0002:0001d760* png_get_error_ptr
0002:0001d770  png_safe_error
0002:0001d7e0  png_safe_warning
0002:0001d810  png_safe_execute
Module: ..\..\lib\libtiff.lib(D:\home\Digi\projects\port\SDL2\packages\tiff-4.0.3\libtiff\tif_close.c)
0002:0001d880  TIFFCleanup
0002:0001d9f0  TIFFClose
Module: ..\..\lib\libtiff.lib(D:\home\Digi\projects\port\SDL2\packages\tiff-4.0.3\libtiff\tif_dir.c)
0002:0001da90* _TIFFsetNString
0002:0001da90* _TIFFsetByteArray
0002:0001dab0* _TIFFsetString
0002:0001dae0* _TIFFsetShortArray
0002:0001db00* _TIFFsetFloatArray
0002:0001db00* _TIFFsetLongArray
0002:0001db20* _TIFFsetDoubleArray
0002:0001db20* _TIFFsetLong8Array
0002:0001ee90  TIFFSetField
0002:0001eec0* TIFFUnsetField
0002:0001ef90+ TIFFVSetField
0002:0001fbf0  TIFFGetField
0002:0001fc20  TIFFVGetField
0002:0001fc90  TIFFFreeDirectory
0002:0001fe90* TIFFSetTagExtender
0002:0001fea0  TIFFCreateDirectory
0002:0001ff00+ TIFFCreateCustomDirectory
0002:0001ff70* TIFFCreateEXIFDirectory
0002:0001ff90  TIFFDefaultDirectory
0002:000205f0* TIFFNumberOfDirectories
0002:00020660* TIFFSetDirectory
0002:00020700* TIFFSetSubDirectory
0002:00020730* TIFFCurrentDirOffset
0002:00020740* TIFFLastDirectory
0002:00020760* TIFFUnlinkDirectory
Module: ..\..\lib\libtiff.lib(D:\home\Digi\projects\port\SDL2\packages\tiff-4.0.3\libtiff\tif_getimage.c)
0002:00021620+ TIFFRGBAImageOK
0002:00021900+ TIFFRGBAImageEnd
0002:00021a50+ TIFFRGBAImageBegin
0002:00022090+ TIFFRGBAImageGet
0002:00022110+ TIFFReadRGBAImageOriented
0002:00022200  TIFFReadRGBAImage
0002:00028d10* TIFFReadRGBAStrip
0002:00028ea0* TIFFReadRGBATile
Module: ..\..\lib\libtiff.lib(D:\home\Digi\projects\port\SDL2\packages\tiff-4.0.3\libtiff\tif_error.c)
0002:00029180  TIFFSetErrorHandler
0002:00029190* TIFFSetErrorHandlerExt
0002:000291a0* TIFFError
0002:00029210  TIFFErrorExt
0003:00028e34+ _TIFFerrorHandlerExt
Module: ..\..\lib\libtiff.lib(D:\home\Digi\projects\port\SDL2\packages\tiff-4.0.3\libtiff\tif_open.c)
0002:000292a0  _TIFFgetMode
0002:00029300  TIFFClientOpen
0002:00029ac0  TIFFFileName
0002:00029ad0* TIFFSetFileName
0002:00029ae0* TIFFFileno
0002:00029af0* TIFFSetFileno
0002:00029b00* TIFFClientdata
0002:00029b10* TIFFSetClientdata
0002:00029b30* TIFFGetMode
0002:00029b40* TIFFSetMode
0002:00029b50  TIFFIsTiled
0002:00029b70* TIFFCurrentRow
0002:00029b80* TIFFCurrentDirectory
0002:00029b90* TIFFCurrentStrip
0002:00029ba0* TIFFCurrentTile
0002:00029bb0* TIFFIsByteSwapped
0002:00029bd0* TIFFIsUpSampled
0002:00029bf0* TIFFIsMSB2LSB
0002:00029c10* TIFFIsBigEndian
0002:00029c30* TIFFGetReadProc
0002:00029c40* TIFFGetWriteProc
0002:00029c50* TIFFGetSeekProc
0002:00029c60* TIFFGetCloseProc
0002:00029c70* TIFFGetSizeProc
0002:00029c80* TIFFGetMapFileProc
0002:00029c90* TIFFGetUnmapFileProc
Module: d:\dev\watcom\lib386\math387s.lib(fchop87.asm)
0002:00029c9c  __CHP
Module: d:\dev\watcom\lib386\os2\clib3s.lib(iob.c)
0003:00028e38  __iob
0003:0003bfa0  __OpenStreams
0003:0003bfa4  __ClosedStreams
Module: d:\dev\watcom\lib386\os2\clib3s.lib(fprintf.c)
0002:00029cc0  fprintf
Module: d:\dev\watcom\lib386\os2\clib3s.lib(_8087386.asm)
0003:00029040  __8087
0003:00029041  __real87
Module: d:\dev\watcom\lib386\os2\clib3s.lib(dmaino32.c)
0002:00029ce3  __LibMain
Module: d:\dev\watcom\lib386\os2\clib3s.lib(segdefns)
0002:00000003  ___begtext
0003:00000000* __nullarea
0003:0002b668  _Start_XI
0003:0002b6b0  _End_XI
0003:0002b6b0  _Start_YI
0003:0002b6c8  _End_YI
Module: d:\dev\watcom\lib386\os2\clib3s.lib(memset.c)
0002:00029f30  memset
Module: ..\..\lib\jpeg.lib(D:\home\Digi\projects\port\SDL2\packages\jpeg-9a\jmemmgr.c)
0002:0002ab10  jinit_memory_mgr
Module: ..\..\lib\jpeg.lib(D:\home\Digi\projects\port\SDL2\packages\jpeg-9a\jdinput.c)
0002:0002ac40  jpeg_core_output_dimensions
0002:0002bb00  jinit_input_controller
Module: ..\..\lib\jpeg.lib(D:\home\Digi\projects\port\SDL2\packages\jpeg-9a\jcomapi.c)
0002:0002bb50  jpeg_abort
0002:0002bb90  jpeg_destroy
0002:0002bbc0  jpeg_alloc_quant_table
0002:0002bbf0  jpeg_alloc_huff_table
Module: d:\dev\watcom\lib386\os2\clib3s.lib(strncpy.c)
0002:0002bc20  strncpy
Module: ..\..\lib\jpeg.lib(D:\home\Digi\projects\port\SDL2\packages\jpeg-9a\jutils.c)
0002:0002bc70  jdiv_round_up
0002:0002bc90  jround_up
0002:0002bcb0  jcopy_sample_rows
0002:0002bd10  jcopy_block_row
0003:0000b4e8  jpeg_natural_order
0003:0000b628  jpeg_natural_order7
0003:0000b72c  jpeg_natural_order6
0003:0000b7fc  jpeg_natural_order5
0003:0000b8a0  jpeg_natural_order4
0003:0000b920  jpeg_natural_order3
0003:0000b984  jpeg_natural_order2
Module: d:\dev\watcom\lib386\os2\clib3s.lib(exit.c)
0002:0002bd35+ __null_int23_exit
0002:0002bd36  exit
0002:0002bd86* _exit
0003:00029044+ __int23_exit
0003:00029048+ __FPE_handler_exit
Module: d:\dev\watcom\lib386\os2\clib3s.lib(sprintf.c)
0002:0002bd90  sprintf
Module: ..\..\lib\jpeg.lib(D:\home\Digi\projects\port\SDL2\packages\jpeg-9a\jquant1.c)
0002:0002ca80  jinit_1pass_quantizer
Module: ..\..\lib\jpeg.lib(D:\home\Digi\projects\port\SDL2\packages\jpeg-9a\jquant2.c)
0002:0002e1d0  jinit_2pass_quantizer
Module: ..\..\lib\jpeg.lib(D:\home\Digi\projects\port\SDL2\packages\jpeg-9a\jdmerge.c)
0002:0002e930  jinit_merged_upsampler
Module: ..\..\lib\jpeg.lib(D:\home\Digi\projects\port\SDL2\packages\jpeg-9a\jdcolor.c)
0002:0002f420  jinit_color_deconverter
Module: ..\..\lib\jpeg.lib(D:\home\Digi\projects\port\SDL2\packages\jpeg-9a\jdsample.c)
0002:0002f970  jinit_upsampler
Module: ..\..\lib\jpeg.lib(D:\home\Digi\projects\port\SDL2\packages\jpeg-9a\jdpostct.c)
0002:0002fe00  jinit_d_post_controller
Module: ..\..\lib\jpeg.lib(D:\home\Digi\projects\port\SDL2\packages\jpeg-9a\jddctmgr.c)
0002:00030470  jinit_inverse_dct
Module: ..\..\lib\jpeg.lib(D:\home\Digi\projects\port\SDL2\packages\jpeg-9a\jdarith.c)
0002:000315b0  jinit_arith_decoder
Module: ..\..\lib\jpeg.lib(D:\home\Digi\projects\port\SDL2\packages\jpeg-9a\jdhuff.c)
0002:00033560  jinit_huff_decoder
Module: ..\..\lib\jpeg.lib(D:\home\Digi\projects\port\SDL2\packages\jpeg-9a\jdcoefct.c)
0002:000345e0  jinit_d_coef_controller
Module: ..\..\lib\jpeg.lib(D:\home\Digi\projects\port\SDL2\packages\jpeg-9a\jdmainct.c)
0002:00034e20  jinit_d_main_controller
Module: d:\dev\watcom\lib386\os2\clib3s.lib(ljmphdl.c)
0003:0002904c  __longjmp_handler
Module: ..\..\lib\libpng.lib(D:\home\Digi\projects\port\SDL2\packages\lpng1612\pngrutil.c)
0002:00034f10+ png_get_uint_31
0002:00034fb0* png_get_uint_32
0002:00034fe0* png_get_int_32
0002:00035020* png_get_uint_16
0002:00035040  png_read_sig
0002:000350e0  png_read_chunk_header
0002:00035190+ png_crc_read
0002:000351d0  png_crc_finish
0002:00035260+ png_crc_error
0002:000358c0  png_handle_IHDR
0002:00035a30  png_handle_PLTE
0002:00035be0  png_handle_IEND
0002:00035c30  png_handle_gAMA
0002:00035cf0  png_handle_sBIT
0002:00035e80  png_handle_cHRM
0002:00036060  png_handle_sRGB
0002:00036150  png_handle_iCCP
0002:00036620  png_handle_sPLT
0002:000368f0  png_handle_tRNS
0002:00036b40  png_handle_bKGD
0002:00036d40  png_handle_hIST
0002:00036e60  png_handle_pHYs
0002:00036f80  png_handle_oFFs
0002:00037100  png_handle_pCAL
0002:000373e0  png_handle_sCAL
0002:000375f0  png_handle_tIME
0002:000376e0  png_handle_tEXt
0002:00037820  png_handle_zTXt
0002:000379d0  png_handle_iTXt
0002:00037d30  png_handle_unknown
0002:00037eb0+ png_check_chunk_name
0002:00037f00  png_combine_row
0002:00038440  png_do_read_interlace
0002:00038bd0  png_read_filter_row
0002:00038c20  png_read_IDAT_data
0002:00038dd0  png_read_finish_IDAT
0002:00038e40  png_read_finish_row
0002:00038f40  png_read_start_row
Module: ..\..\lib\libpng.lib(D:\home\Digi\projects\port\SDL2\packages\lpng1612\pngmem.c)
0002:00039280  png_destroy_png_struct
0002:000392e0  png_calloc
0002:00039310  png_malloc_base
0002:00039380  png_malloc_array
0002:000393c0  png_realloc_array
0002:00039470  png_malloc
0002:000394b0* png_malloc_default
0002:000394f0  png_malloc_warn
0002:00039520  png_free
0002:00039560+ png_free_default
0002:00039580  png_set_mem_fn
0002:000395b0* png_get_mem_ptr
Module: ..\..\lib\zlib.lib(D:\home\Digi\projects\port\SDL2\packages\zlib-1.2.8\inflate.c)
0002:000395c0+ inflateResetKeep
0002:00039650  inflateReset
0002:00039690+ inflateReset2
0002:00039730+ inflateInit2_
0002:000397f0  inflateInit_
0002:00039810* inflatePrime
0002:00039a50  inflate
0002:0003b0f0  inflateEnd
0002:0003b140* inflateGetDictionary
0002:0003b1c0* inflateSetDictionary
0002:0003b260* inflateGetHeader
0002:0003b300* inflateSync
0002:0003b3f0* inflateSyncPoint
0002:0003b420* inflateCopy
0002:0003b5a0* inflateUndermine
0002:0003b5d0* inflateMark
Module: ..\..\lib\libpng.lib(D:\home\Digi\projects\port\SDL2\packages\lpng1612\pngset.c)
0002:0003b620  png_set_bKGD
0002:0003b650  png_set_cHRM_fixed
0002:0003b6d0+ png_set_cHRM_XYZ_fixed
0002:0003b750* png_set_cHRM
0002:0003b830* png_set_cHRM_XYZ
0002:0003b920  png_set_gAMA_fixed
0002:0003b960* png_set_gAMA
0002:0003b9a0  png_set_hIST
0002:0003ba50  png_set_IHDR
0002:0003bb10  png_set_oFFs
0002:0003bb50  png_set_pCAL
0002:0003bde0  png_set_sCAL_s
0002:0003bf70* png_set_sCAL
0002:0003c010* png_set_sCAL_fixed
0002:0003c0a0  png_set_pHYs
0002:0003c0e0  png_set_PLTE
0002:0003c1e0  png_set_sBIT
0002:0003c210  png_set_sRGB
0002:0003c250* png_set_sRGB_gAMA_and_cHRM
0002:0003c290* png_set_iCCP
0002:0003c3f0* png_set_text
0002:0003c430  png_set_text_2
0002:0003c760  png_set_tIME
0002:0003c7e0  png_set_tRNS
0002:0003c8f0  png_set_sPLT
0002:0003cae0  png_set_unknown_chunks
0002:0003cc40* png_set_unknown_chunk_location
0002:0003ccb0* png_permit_mng_features
0002:0003cd40  png_set_keep_unknown_chunks
0002:0003cf50* png_set_read_user_chunk_fn
0002:0003cf70* png_set_rows
0002:0003cfc0* png_set_compression_buffer_size
0002:0003d060* png_set_invalid
0002:0003d080* png_set_user_limits
0002:0003d0a0* png_set_chunk_cache_max
0002:0003d0c0* png_set_chunk_malloc_max
0002:0003d0e0  png_set_benign_errors
0002:0003d100* png_set_check_for_invalid_index
Module: d:\dev\watcom\lib386\os2\clib3s.lib(fopen.c)
0002:0003d120+ __open_flags
0002:0003d340+ _fsopen
0002:0003d3a0  fopen
0002:0003d440* freopen
Module: d:\dev\watcom\lib386\os2\clib3s.lib(errno.c)
0002:0003d4c0  __get_errno_ptr
0002:0003d4d0* __get_doserrno_ptr
Module: d:\dev\watcom\lib386\os2\clib3s.lib(strerror.c)
0002:0003d800  strerror
0002:0003d820* _strerror
0003:00029050+ _sys_errlist
0003:000290f4+ _sys_nerr
Module: d:\dev\watcom\lib386\os2\clib3s.lib(fclose.c)
0002:0003d8f0  __doclose
0002:0003d9b0  __shutdown_stream
0002:0003d9e0  fclose
0003:0003c3b8  __RmTmpFileFn
Module: d:\dev\watcom\lib386\math387s.lib(strtod.c)
0002:0003df40+ __Strtold
0002:0003e0b4  strtod
Module: d:\dev\watcom\lib386\os2\clib3s.lib(fltused.c)
0003:000290f8  _fltused_
Module: ..\..\lib\zlib.lib(D:\home\Digi\projects\port\SDL2\packages\zlib-1.2.8\crc32.c)
0002:0003e220* get_crc_table
0002:0003e230  crc32
0002:0003ea40* crc32_combine
0002:0003ea60* crc32_combine64
Module: d:\dev\watcom\lib386\os2\clib3s.lib(nfree.c)
0002:0003ea80  free
0002:0003ea90  _nfree
0003:0003c3bc  __MiniHeapFreeRover
Module: ..\..\lib\zlib.lib(D:\home\Digi\projects\port\SDL2\packages\zlib-1.2.8\adler32.c)
0002:0003eba0  adler32
0002:0003eea0* adler32_combine
0002:0003eec0* adler32_combine64
Module: d:\dev\watcom\lib386\math387s.lib(frexp.c)
0002:0003eed9  frexp
Module: d:\dev\watcom\lib386\math387s.lib(modf87.asm)
0002:0003ef50  modf
Module: d:\dev\watcom\lib386\math387s.lib(floor.c)
0002:0003ef70  floor
Module: d:\dev\watcom\lib386\math387s.lib(pow87.asm)
0002:0003f12b* pow
0002:0003efc0  IF@DPOW
0002:0003efc0* IF@POW
Module: ..\..\lib\libpng.lib(D:\home\Digi\projects\port\SDL2\packages\lpng1612\pngwrite.c)
0002:0003f1f0+ png_write_info_before_PLTE
0002:0003f340+ png_write_info
0002:0003f5f0+ png_write_end
0002:0003f730+ png_convert_from_struct_tm
0002:0003f770* png_convert_from_time_t
0002:0003f790+ png_create_write_struct
0002:0003f7c0+ png_create_write_struct_2
0002:0003f880* png_write_rows
0002:0003f8c0+ png_write_image
0002:0003fa50+ png_write_row
0002:0003fd20* png_set_flush
0002:0003fd40  png_write_flush
0002:0003fe50  png_destroy_write_struct
0002:0003feb0+ png_set_filter
0002:00040230* png_set_filter_heuristics
0002:00040360* png_set_filter_heuristics_fixed
0002:00040480+ png_set_compression_level
0002:000404a0* png_set_compression_mem_level
0002:000404c0* png_set_compression_strategy
0002:000404e0* png_set_compression_window_bits
0002:00040530* png_set_compression_method
0002:00040560* png_set_text_compression_level
0002:00040580* png_set_text_compression_mem_level
0002:000405a0* png_set_text_compression_strategy
0002:000405c0* png_set_text_compression_window_bits
0002:00040610* png_set_text_compression_method
0002:00040640* png_set_write_status_fn
0002:00040660* png_set_write_user_transform_fn
0002:00040680* png_write_png
0002:000413c0+ png_image_write_to_stdio
0002:00041480* png_image_write_to_file
Module: d:\dev\watcom\lib386\os2\clib3s.lib(fread.c)
0002:000415c0  fread
Module: d:\dev\watcom\lib386\os2\clib3s.lib(abort.c)
0002:000417c7  abort
0002:000417d9+ __terminate
0003:000290fc+ __abort
Module: ..\..\lib\libtiff.lib(D:\home\Digi\projects\port\SDL2\packages\tiff-4.0.3\libtiff\tif_unix.c)
0002:000418e0* TIFFFdOpen
0002:00041930* TIFFOpen
0002:00041a00  _TIFFmalloc
0002:00041a10  _TIFFfree
0002:00041a20  _TIFFrealloc
0002:00041a40  _TIFFmemset
0002:00041a60  _TIFFmemcpy
0002:00041a90  _TIFFmemcmp
0003:00029100  _TIFFwarningHandler
0003:00029104  _TIFFerrorHandler
Module: ..\..\lib\libtiff.lib(D:\home\Digi\projects\port\SDL2\packages\tiff-4.0.3\libtiff\tif_flush.c)
0002:00041b60  TIFFFlush
0002:00041d00  TIFFFlushData
Module: d:\dev\watcom\lib386\os2\clib3s.lib(strncmp.c)
0002:00041d40  strncmp
Module: ..\..\lib\libtiff.lib(D:\home\Digi\projects\port\SDL2\packages\tiff-4.0.3\libtiff\tif_dirinfo.c)
0002:00041e10  _TIFFGetFields
0002:00041e20  _TIFFGetExifFields
0002:00041e30  _TIFFSetupFields
0002:00041f80  _TIFFMergeFields
0002:00042070* _TIFFPrintFieldInfo
0002:00042100  TIFFDataWidth
0002:00042150  _TIFFDataSize
0002:00042190  TIFFFindField
0002:00042230+ _TIFFFindFieldByName
0002:000422f0  TIFFFieldWithTag
0002:00042340* TIFFFieldWithName
0002:00042390* TIFFFieldTag
0002:000423a0* TIFFFieldName
0002:000423b0* TIFFFieldDataType
0002:000423c0* TIFFFieldPassCount
0002:000423d0* TIFFFieldReadCount
0002:000423e0* TIFFFieldWriteCount
0002:000423f0* _TIFFFindOrRegisterField
0002:00042490  _TIFFCreateAnonField
0002:00042800* TIFFMergeFieldInfo
Module: ..\..\lib\libtiff.lib(D:\home\Digi\projects\port\SDL2\packages\tiff-4.0.3\libtiff\tif_warning.c)
0002:00042a00* TIFFSetWarningHandler
0002:00042a10* TIFFSetWarningHandlerExt
0002:00042a20* TIFFWarning
0002:00042a90  TIFFWarningExt
0003:0002ab08+ _TIFFwarningHandlerExt
Module: ..\..\lib\libtiff.lib(D:\home\Digi\projects\port\SDL2\packages\tiff-4.0.3\libtiff\tif_compress.c)
0002:00042b80+ _TIFFNoRowEncode
0002:00042ba0+ _TIFFNoStripEncode
0002:00042bc0+ _TIFFNoTileEncode
0002:00042c60+ _TIFFNoPreCode
0002:00042c60+ _TIFFNoFixupTags
0002:00042c70+ _TIFFNoRowDecode
0002:00042c90+ _TIFFNoStripDecode
0002:00042cb0+ _TIFFNoTileDecode
0002:00042cd0+ _TIFFNoSeek
0002:00042d00  _TIFFSetDefaultCompressionState
0002:00042dd0  TIFFSetCompressionScheme
0002:00042e20  TIFFFindCODEC
0002:00042e60* TIFFRegisterCODEC
0002:00042ef0* TIFFUnRegisterCODEC
0002:00042f30* TIFFGetConfiguredCODECs
Module: ..\..\lib\libtiff.lib(D:\home\Digi\projects\port\SDL2\packages\tiff-4.0.3\libtiff\tif_read.c)
0002:000434f0* TIFFReadScanline
0002:00043580  TIFFReadEncodedStrip
0002:00043840* TIFFReadRawStrip
0002:00043970+ TIFFFillStrip
0002:00043c80  TIFFReadTile
0002:00043d00+ TIFFReadEncodedTile
0002:00043f90* TIFFReadRawTile
0002:00044080+ TIFFFillTile
0002:00044330+ TIFFReadBufferSetup
0002:00044690  _TIFFNoPostDecode
0002:000446c0  _TIFFSwab16BitData
0002:00044710  _TIFFSwab24BitData
0002:00044770  _TIFFSwab32BitData
0002:000447c0  _TIFFSwab64BitData
Module: d:\dev\watcom\lib386\os2\clib3s.lib(assert99.c)
0002:00044860  _assert99
0002:00044a40* __assert99
Module: ..\..\lib\libtiff.lib(D:\home\Digi\projects\port\SDL2\packages\tiff-4.0.3\libtiff\tif_aux.c)
0002:00044a80  _TIFFMultiply32
0002:00044ad0  _TIFFMultiply64
0002:00044b50  _TIFFCheckRealloc
0002:00044bc0  _TIFFCheckMalloc
0002:00044e50+ TIFFVGetFieldDefaulted
0002:000453f0  TIFFGetFieldDefaulted
0002:00045420* _TIFFUInt64ToFloat
0002:00045470* _TIFFUInt64ToDouble
Module: d:\dev\watcom\lib386\os2\clib3s.lib(cmp386.asm)
0002:000454d0  strcmp
Module: ..\..\lib\libtiff.lib(D:\home\Digi\projects\port\SDL2\packages\tiff-4.0.3\libtiff\tif_dirread.c)
0002:000494f0  TIFFReadDirectory
0002:0004a490+ TIFFReadCustomDirectory
0002:0004a760* TIFFReadEXIFDirectory
0002:0004d230  _TIFFFillStriles
Module: ..\..\lib\libtiff.lib(D:\home\Digi\projects\port\SDL2\packages\tiff-4.0.3\libtiff\tif_swab.c)
0002:0004d240  TIFFSwabShort
0002:0004d250  TIFFSwabLong
0002:0004d270  TIFFSwabLong8
0002:0004d2b0  TIFFSwabArrayOfShort
0002:0004d2e0  TIFFSwabArrayOfTriples
0002:0004d310  TIFFSwabArrayOfLong
0002:0004d340  TIFFSwabArrayOfLong8
0002:0004d390* TIFFSwabFloat
0002:0004d3b0  TIFFSwabArrayOfFloat
0002:0004d3e0* TIFFSwabDouble
0002:0004d420  TIFFSwabArrayOfDouble
0002:0004d470  TIFFGetBitRevTable
0002:0004d490  TIFFReverseBits
Module: ..\..\lib\libtiff.lib(D:\home\Digi\projects\port\SDL2\packages\tiff-4.0.3\libtiff\tif_tile.c)
0002:0004d540  TIFFComputeTile
0002:0004d670  TIFFCheckTile
0002:0004d750  TIFFNumberOfTiles
0002:0004d850+ TIFFTileRowSize64
0002:0004d8f0  TIFFTileRowSize
0002:0004d940  TIFFVTileSize64
0002:0004db70* TIFFVTileSize
0002:0004dbc0  TIFFTileSize64
0002:0004dbe0  TIFFTileSize
0002:0004dc30* TIFFDefaultTileSize
0002:0004dc50  _TIFFDefaultTileSize
Module: ..\..\lib\libtiff.lib(D:\home\Digi\projects\port\SDL2\packages\tiff-4.0.3\libtiff\tif_strip.c)
0002:0004dcc0  TIFFComputeStrip
0002:0004dd30  TIFFNumberOfStrips
0002:0004dda0+ TIFFVStripSize64
0002:0004dfe0  TIFFVStripSize
0002:0004e030+ TIFFRawStripSize64
0002:0004e080* TIFFRawStripSize
0002:0004e0e0+ TIFFStripSize64
0002:0004e100  TIFFStripSize
0002:0004e150* TIFFDefaultStripSize
0002:0004e170  _TIFFDefaultStripSize
0002:0004e1d0  TIFFScanlineSize64
0002:0004e3b0  TIFFScanlineSize
0002:0004e400+ TIFFRasterScanlineSize64
0002:0004e4c0* TIFFRasterScanlineSize
Module: ..\..\lib\libtiff.lib(D:\home\Digi\projects\port\SDL2\packages\tiff-4.0.3\libtiff\tif_color.c)
0002:0004e510  TIFFCIELabToXYZ
0002:0004e650  TIFFXYZToRGB
0002:0004e960  TIFFCIELabToRGBInit
0002:0004eaa0  TIFFYCbCrtoRGB
0002:0004ebc0  TIFFYCbCrToRGBInit
Module: d:\dev\watcom\lib386\os2\clib3s.lib(memmove.c)
0002:0004eed0  memmove
Module: d:\dev\watcom\lib386\os2\clib3s.lib(initfile.c)
0002:0004ef60  __InitFiles
Module: d:\dev\watcom\lib386\os2\clib3s.lib(ioexit.c)
0002:0004f060* fcloseall
0002:0004f070  __full_io_exit
Module: d:\dev\watcom\lib386\os2\clib3s.lib(fprtf.c)
0002:0004f0a0  __fprtf
Module: d:\dev\watcom\lib386\os2\clib3s.lib(chk8087.c)
0002:0004f180  _fpreset
0002:0004f1a0* __init_8087
0002:0004f1b0  __chk8087
Module: d:\dev\watcom\lib386\os2\clib3s.lib(crwdata)
0003:0002ab5d  _osmajor
0003:0002ab5e  _osminor
0003:0002ab2c  _LpDllName
0003:0002ab30  _LpwCmdLine
0003:0002ab34  _LpwPgmName
0003:0002ab38  _LpwDllName
0003:0002ab24  _LpCmdLine
0003:0002ab28  _LpPgmName
0003:0002ab1c* _dynend
0003:0002ab20  _curbrk
0003:0002ab3c* _STACKLOW
0003:0002ab40* _STACKTOP
0003:0002ab44  __ASTACKSIZ
0003:0002ab48  __ASTACKPTR
0003:0002ab4c  _cbyte
0003:0002ab50  _cbyte2
0003:0002ab54* __child
0003:0002ab59  _Envptr
0003:0002ab58  __no87
0003:0002ab5f* __FPE_handler
Module: d:\dev\watcom\lib386\os2\clib3s.lib(lmaino32.c)
0002:0004f200  LibMain
Module: d:\dev\watcom\lib386\os2\clib3s.lib(initrtns.c)
0002:0004f230  __InitRtns
0002:0004f290  __FiniRtns
Module: d:\dev\watcom\lib386\os2\clib3s.lib(maino32.c)
0003:0002ab64  __FirstThreadData
0003:0002ab68  __GetThreadPtr
0003:0002ab6c  _AccessFileH
0003:0002ab70  _ReleaseFileH
0003:0002ab74  _AccessIOB
0003:0002ab78  _ReleaseIOB
0003:0002ab7c  _AccessNHeap
0003:0002ab80  _AccessFHeap
0003:0002ab84  _ReleaseNHeap
0003:0002ab88  _ReleaseFHeap
0003:0002ab8c  _AccessTDList
0002:0004f2fe  __threadstack
0002:0004f305  __threadid
0002:0004f30c* __OS2MainInit
0002:0004f37d  __OS2Init
0002:0004f3be  __OS2Fini
0002:0004f3c6  __shutdown_stack_checking
0002:0004f3db  __exit
0003:0002ab90  _ReleaseTDList
0003:0002ab94  __sig_init_rtn
0003:0002ab98  __sig_fini_rtn
0003:0002ab9c  __threadstksize
0003:0002aba0  __process_fini
0003:0003c3cc  __Is_DLL
0003:0003c3d0+ __saved_CS
Module: d:\dev\watcom\lib386\os2\clib3s.lib(mthread.c)
0002:0004f470+ __CloseSemaphore
0002:0004f4a0+ __AccessSemaphore
0002:0004f510+ __ReleaseSemaphore
0002:0004f570+ __AccessIOB
0002:0004f580+ __ReleaseIOB
0002:0004f590+ __AccessFileH
0002:0004f5b0+ __ReleaseFileH
0002:0004f5d0+ __AccessNHeap
0002:0004f5e0+ __ReleaseNHeap
0002:0004f5f0+ __AccessFHeap
0002:0004f600+ __ReleaseFHeap
0002:0004f610+ __AccessTDList
0002:0004f620+ __ReleaseTDList
0002:0004f630+ __MultipleThread
0002:0004f670  __AllocInitThreadData
0002:0004f6c0  __FreeInitThreadData
0002:0004f6e0  __OS2AddThread
0002:0004f760  __OS2RemoveThread
0002:0004f7b0  __InitMultipleThread
0003:0002aba4+ __AccessSema4
0003:0002aba8+ __ReleaseSema4
0003:0002abac+ __CloseSema4
Module: d:\dev\watcom\lib386\os2\clib3s.lib(ddgrpo32.c)
0002:0004fa20  __disallow_single_dgroup
Module: d:\dev\watcom\lib386\os2\clib3s.lib(cinit.c)
0002:0004fc70  __CommonInit
0003:0003c8e0  __hmodule
Module: d:\dev\watcom\lib386\os2\clib3s.lib(nmalloc.c)
0002:0004fc80+ _use_os2_high_mem
0002:0004fcb0* _os2lmalloc
0002:0004fcf0* _os2hmalloc
0002:0004fd30  malloc
0002:0004fd40  _nmalloc
0003:0002abb0  __nheapbeg
0003:0002abb4  __MiniHeapRover
0003:0002abb8  __LargestSizeB4MiniHeapRover
0003:0003c8e4  _os2_use_obj_any
Module: d:\dev\watcom\lib386\os2\clib3s.lib(atouni.c)
0002:0004fe90  _atouni
Module: d:\dev\watcom\lib386\os2\clib3s.lib(trdalloc.c)
0002:0004fed0  __InitThreadProcessing
0002:0004fef0  __FiniThreadProcessing
0003:0003c8e8  __ThreadData
Module: d:\dev\watcom\lib386\os2\clib3s.lib(maxthrds.c)
0003:0002abbc  __MaxThreads
Module: d:\dev\watcom\lib386\os2\clib3s.lib(dosseg)
0000:00001234  __DOSseg__
Module: d:\dev\watcom\lib386\os2\clib3s.lib(__stos.asm)
0002:0004ff50  __STOSB
0002:0004ff87* __STOSD
Module: ..\..\lib\jpeg.lib(D:\home\Digi\projects\port\SDL2\packages\jpeg-9a\jmemansi.c)
0002:00050000  jpeg_get_small
0002:00050020  jpeg_free_small
0002:00050040  jpeg_get_large
0002:00050060  jpeg_free_large
0002:00050080  jpeg_mem_available
0002:00050190  jpeg_open_backing_store
0002:000501f0  jpeg_mem_init
0002:00050200  jpeg_mem_term
Module: d:\dev\watcom\lib386\os2\clib3s.lib(getenv.c)
0002:00050210  getenv
Module: d:\dev\watcom\lib386\os2\clib3s.lib(sscanf.c)
0002:000502f0+ vsscanf
0002:00050330  sscanf
Module: d:\dev\watcom\lib386\os2\clib3s.lib(vsprintf.c)
0002:00050380  vsprintf
Module: ..\..\lib\jpeg.lib(D:\home\Digi\projects\port\SDL2\packages\jpeg-9a\jidctint.c)
0002:000503b0  jpeg_idct_islow
0002:00050a30  jpeg_idct_7x7
0002:00050ee0  jpeg_idct_6x6
0002:00051210  jpeg_idct_5x5
0002:00051440  jpeg_idct_4x4
0002:000515d0  jpeg_idct_3x3
0002:00051700  jpeg_idct_2x2
0002:000517d0  jpeg_idct_1x1
0002:00051820  jpeg_idct_9x9
0002:00051db0  jpeg_idct_10x10
0002:00052430  jpeg_idct_11x11
0002:00052c40  jpeg_idct_12x12
0002:00053450  jpeg_idct_13x13
0002:00053ce0  jpeg_idct_14x14
0002:00054600  jpeg_idct_15x15
0002:00054f10  jpeg_idct_16x16
0002:000559d0  jpeg_idct_16x8
0002:000562b0  jpeg_idct_14x7
0002:000569f0  jpeg_idct_12x6
0002:00056f80  jpeg_idct_10x5
0002:00057420  jpeg_idct_8x4
0002:000577b0  jpeg_idct_6x3
0002:00057990  jpeg_idct_4x2
0002:00057ac0  jpeg_idct_2x1
0002:00057b20  jpeg_idct_8x16
0002:000582f0  jpeg_idct_7x14
0002:000589a0  jpeg_idct_6x12
0002:00058f50  jpeg_idct_5x10
0002:000593e0  jpeg_idct_4x8
0002:00059840  jpeg_idct_3x6
0002:00059a20  jpeg_idct_2x4
0002:00059b30  jpeg_idct_1x2
Module: ..\..\lib\jpeg.lib(D:\home\Digi\projects\port\SDL2\packages\jpeg-9a\jidctfst.c)
0002:00059bb0  jpeg_idct_ifast
Module: ..\..\lib\jpeg.lib(D:\home\Digi\projects\port\SDL2\packages\jpeg-9a\jidctflt.c)
0002:0005a180  jpeg_idct_float
Module: ..\..\lib\jpeg.lib(D:\home\Digi\projects\port\SDL2\packages\jpeg-9a\jaricom.c)
0003:0000edd4  jpeg_aritab
Module: ..\..\lib\zlib.lib(D:\home\Digi\projects\port\SDL2\packages\zlib-1.2.8\zutil.c)
0002:0005a840* zlibVersion
0002:0005a850* zlibCompileFlags
0002:0005a860* zError
0002:0005a880  zcalloc
0002:0005a8b0  zcfree
0003:0000ef9c  z_errmsg
Module: ..\..\lib\zlib.lib(D:\home\Digi\projects\port\SDL2\packages\zlib-1.2.8\inftrees.c)
0002:0005a8d0  inflate_table
0003:0000efc4* inflate_copyright
Module: ..\..\lib\zlib.lib(D:\home\Digi\projects\port\SDL2\packages\zlib-1.2.8\inffast.c)
0002:0005adc0  inflate_fast
Module: ..\..\lib\libpng.lib(D:\home\Digi\projects\port\SDL2\packages\lpng1612\pngwutil.c)
0002:0005b300+ png_save_uint_32
0002:0005b340+ png_save_uint_16
0002:0005b360  png_write_sig
0002:0005b440* png_write_chunk_start
0002:0005b490+ png_write_chunk_data
0002:0005b4d0+ png_write_chunk_end
0002:0005b560  png_write_chunk
0002:0005b9f0  png_free_buffer_list
0002:0005bd70  png_write_IHDR
0002:0005c010  png_write_PLTE
0002:0005c0f0  png_compress_IDAT
0002:0005c320  png_write_IEND
0002:0005c340  png_write_gAMA_fixed
0002:0005c380  png_write_sRGB
0002:0005c3c0  png_write_iCCP
0002:0005c530  png_write_sPLT
0002:0005c680  png_write_sBIT
0002:0005c770  png_write_cHRM_fixed
0002:0005c820  png_write_tRNS
0002:0005c970  png_write_bKGD
0002:0005caa0  png_write_hIST
0002:0005cb30  png_write_tEXt
0002:0005cbf0  png_write_zTXt
0002:0005cd10  png_write_iTXt
0002:0005cf20  png_write_oFFs
0002:0005cf90  png_write_pCAL
0002:0005d130  png_write_sCAL_s
0002:0005d1e0  png_write_pHYs
0002:0005d250  png_write_tIME
0002:0005d2e0  png_write_start_row
0002:0005d460  png_write_finish_row
0002:0005d5a0  png_do_write_interlace
0002:0005d880  png_write_find_filter
Module: d:\dev\watcom\lib386\os2\clib3s.lib(comtflag.c)
0003:0002abc0  _commode
Module: d:\dev\watcom\lib386\os2\clib3s.lib(textmode.c)
0003:0002abc4  _fmode
Module: d:\dev\watcom\lib386\os2\clib3s.lib(seterrno.c)
0002:0005eaba  __set_errno
0002:0005eacb  __set_EDOM
0002:0005ead9  __set_ERANGE
0002:0005eae7* __set_EINVAL
0002:0005eafa  __set_doserrno
Module: d:\dev\watcom\lib386\os2\clib3s.lib(tolower.c)
0002:0005eb10  tolower
Module: d:\dev\watcom\lib386\os2\clib3s.lib(openos2.c)
0002:0005ecf0  open
0002:0005ed10  sopen
Module: d:\dev\watcom\lib386\os2\clib3s.lib(fseek.c)
0002:0005ed90  fseek
Module: d:\dev\watcom\lib386\os2\clib3s.lib(chktty.c)
0002:0005ef40  __chktty
Module: d:\dev\watcom\lib386\os2\clib3s.lib(freefp.c)
0002:0005ef80  __freefp
0002:0005efd0  __purgefp
Module: d:\dev\watcom\lib386\os2\clib3s.lib(allocfp.c)
0002:0005f010  __allocfp
Module: d:\dev\watcom\lib386\os2\clib3s.lib(__lseek.c)
0002:0005f0e0  __lseek
Module: d:\dev\watcom\lib386\os2\clib3s.lib(_clseos2.c)
0002:0005f120  __close
Module: d:\dev\watcom\lib386\os2\clib3s.lib(flush.c)
0002:0005f170  __flush
Module: d:\dev\watcom\lib386\os2\clib3s.lib(istable.c)
0002:0005f280  _IsTable
Module: d:\dev\watcom\lib386\math387s.lib(bufld386.asm)
0002:0005f384  __ZBuf2LD
Module: d:\dev\watcom\lib386\math387s.lib(ldcvt.c)
0002:0005f50c  _LDScale10x
0002:0005fa78  __LDcvt
Module: d:\dev\watcom\lib386\math387s.lib(inf_nan.c)
0002:0005ff0a* __f_infinity
0002:0005ff0e* __f_posqnan
0002:0005ff12  __d_infinity
0002:0005ff1a  __d_posqnan
0002:0005ff22* __ld_infinity
0002:0005ff2a* __ld_posqnan
Module: d:\dev\watcom\lib386\os2\clib3s.lib(hugeval.c)
0002:0005ff40  _HugeValue
Module: d:\dev\watcom\lib386\os2\clib3s.lib(setefg.c)
0002:0005ff50  __setEFGfmt
Module: d:\dev\watcom\lib386\os2\clib3s.lib(mem.c)
0002:0005ff70  __MemAllocator
0002:00060020  __MemFree
Module: d:\dev\watcom\lib386\os2\clib3s.lib(chipvar)
0003:0002ac70* ___chipbug
0003:0002ac70  __chipbug
Module: d:\dev\watcom\lib386\math387s.lib(pow87e.c)
0002:00060153  __pow87_err
Module: d:\dev\watcom\lib386\math387s.lib(exp87.asm)
0002:0006025d* exp
0002:000601e4* __@DEXP1
0002:000601ec* IF@EXP
0002:000601ec* IF@DEXP
0002:000601ee  __@DEXP
Module: d:\dev\watcom\lib386\os2\clib3s.lib(chipd32.asm)
0002:00060387  __fdiv_fpr
0002:00060849* __fdiv_chk
0002:0006085c* __fdiv_m32
0002:000608a9* __fdiv_m64
0002:000608f6* __fdiv_m32r
0002:00060943* __fdiv_m64r
Module: d:\dev\watcom\lib386\os2\clib3s.lib(gmtime.c)
0002:000609d0  __brktime
0002:00060af0+ _gmtime
0002:00060b20  gmtime
Module: ..\..\lib\libpng.lib(D:\home\Digi\projects\port\SDL2\packages\lpng1612\pngwio.c)
0002:00060b40  png_write_data
0002:00060b70+ png_default_write_data
0002:00060bb0  png_flush
0002:00060bd0+ png_default_flush
0002:00060bf0  png_set_write_fn
Module: ..\..\lib\libpng.lib(D:\home\Digi\projects\port\SDL2\packages\lpng1612\pngwtran.c)
0002:00061260  png_do_write_transformations
Module: ..\..\lib\zlib.lib(D:\home\Digi\projects\port\SDL2\packages\zlib-1.2.8\deflate.c)
0003:0000f138* deflate_copyright
0002:00061380* deflateInit_
0002:000613b0  deflateInit2_
0002:00061610* deflateSetDictionary
0002:000617c0+ deflateResetKeep
0002:00061880  deflateReset
0002:000618b0* deflateSetHeader
0002:000618e0* deflatePending
0002:00061920* deflatePrime
0002:000619b0* deflateParams
0002:00061ab0* deflateTune
0002:00061af0* deflateBound
0002:00061c80  deflate
0002:00062650  deflateEnd
0002:00062720* deflateCopy
Module: d:\dev\watcom\lib386\os2\clib3s.lib(fflush.c)
0002:00063c60  fflush
Module: d:\dev\watcom\lib386\os2\clib3s.lib(remove.c)
0002:00063c80  remove
Module: d:\dev\watcom\lib386\os2\clib3s.lib(qread.c)
0002:00063c90  __qread
Module: d:\dev\watcom\lib386\os2\clib3s.lib(ioalloc.c)
0002:00063cd0  __ioalloc
Module: d:\dev\watcom\lib386\os2\clib3s.lib(fgetc.c)
0002:00063d70  __fill_buffer
0002:00063e80* fgetc
Module: d:\dev\watcom\lib386\os2\clib3s.lib(xmsgo32.c)
0002:00063f50+ __exit_with_msg
0002:00063fa0  __fatal_runtime_error
Module: d:\dev\watcom\lib386\os2\clib3s.lib(read.c)
0002:00063fd0  read
Module: d:\dev\watcom\lib386\os2\clib3s.lib(write.c)
0002:00064270  write
Module: d:\dev\watcom\lib386\os2\clib3s.lib(lseek.c)
0002:000644c0  lseek
Module: d:\dev\watcom\lib386\os2\clib3s.lib(close.c)
0002:00064500  close
Module: d:\dev\watcom\lib386\os2\clib3s.lib(fstatos2.c)
0002:00064540  fstat
Module: d:\dev\watcom\lib386\os2\clib3s.lib(nrealloc.c)
0002:000646e0  realloc
0002:00064700+ _nrealloc
Module: d:\dev\watcom\lib386\os2\clib3s.lib(vfprintf.c)
0002:000647e0  vfprintf
Module: ..\..\lib\libtiff.lib(D:\home\Digi\projects\port\SDL2\packages\tiff-4.0.3\libtiff\tif_dirwrite.c)
0002:00064800* TIFFWriteDirectory
0002:00064820* TIFFCheckpointDirectory
0002:00064880* TIFFWriteCustomDirectory
0002:000648a0  TIFFRewriteDirectory
0002:00068550  _TIFFRewriteField
Module: ..\..\lib\libtiff.lib(D:\home\Digi\projects\port\SDL2\packages\tiff-4.0.3\libtiff\tif_write.c)
0002:00068f40* TIFFWriteScanline
0002:00069240* TIFFWriteEncodedStrip
0002:00069500* TIFFWriteRawStrip
0002:000695f0* TIFFWriteTile
0002:00069660+ TIFFWriteEncodedTile
0002:00069960* TIFFWriteRawTile
0002:000699e0  TIFFSetupStrips
0002:00069ad0+ TIFFWriteCheck
0002:00069c20+ TIFFWriteBufferSetup
0002:0006a0f0  TIFFFlushData1
0002:0006a190  TIFFSetWriteOffset
Module: d:\dev\watcom\lib386\os2\clib3s.lib(qsort.c)
0002:0006a230  qsort
Module: d:\dev\watcom\lib386\os2\clib3s.lib(bsearch.c)
0002:0006a960  bsearch
Module: ..\..\lib\libtiff.lib(D:\home\Digi\projects\port\SDL2\packages\tiff-4.0.3\libtiff\tif_codec.c)
0002:0006aa90  TIFFIsCODECConfigured
0003:0002ac84  _TIFFBuiltinCODECS
Module: d:\dev\watcom\lib386\os2\clib3s.lib(i8d.asm)
0002:0006aabc* __I8D
0002:0006ab11  __U8D
Module: d:\dev\watcom\lib386\os2\clib3s.lib(i8m386.asm)
0002:0006aba0* __I8M
0002:0006aba0  __U8M
Module: d:\dev\watcom\lib386\os2\clib3s.lib(_snprint.c)
0002:0006abf0+ _vsnprintf
0002:0006ac60  _snprintf
Module: d:\dev\watcom\lib386\os2\clib3s.lib(enterdb.c)
0002:0006ac90  __EnterWVIDEO
0003:0002ad68  __WD_Present
Module: d:\dev\watcom\lib386\os2\clib3s.lib(stack386.c)
0002:0006acc0  stackavail
Module: d:\dev\watcom\lib386\os2\clib3s.lib(stko32.asm)
0002:0006ace5  __STK
0002:0006acd5  __CHK
0002:0006ad11  __GRO
0002:0006ad04  __STKOVERFLOW
Module: d:\dev\watcom\lib386\os2\clib3s.lib(rterrmsg.c)
0002:0006ad50  __rterr_msg
Module: d:\dev\watcom\lib386\os2\clib3s.lib(7u8f386.asm)
0002:0006ae35  __U8FD7
0002:0006ae1c  __U8FS7
Module: d:\dev\watcom\lib386\os2\clib3s.lib(i8rs386.asm)
0002:0006ae50  __U8RS
0002:0006ae6a* __I8RS
0002:0006ae85* __I8LS
0002:0006ae85  __U8LS
Module: d:\dev\watcom\lib386\os2\clib3s.lib(fputc.c)
0002:0006aea0  fputc
Module: d:\dev\watcom\lib386\os2\clib3s.lib(prtf.c)
0002:0006afa0  __prtf
Module: d:\dev\watcom\lib386\os2\clib3s.lib(8087cw.c)
0003:0002ad7c  __8087cw
Module: d:\dev\watcom\lib386\os2\clib3s.lib(ini87386.asm)
0002:0006bd44  __x87id
Module: d:\dev\watcom\lib386\os2\clib3s.lib(dllmno32.c)
0002:0006bd80  DllMain
Module: d:\dev\watcom\lib386\os2\clib3s.lib(trdlist.c)
0002:0006bde0  __GetThreadData
0002:0006bf10  __ReallocThreadData
0002:0006c080  __AddThreadData
0002:0006c100  __RemoveThreadData
0002:0006c160* __ResizeThreadDataList
0002:0006c1b0  __FreeThreadDataList
0002:0006c1f0* __ActiveThreads
Module: d:\dev\watcom\lib386\os2\clib3s.lib(mthrdini.c)
0002:0006c210  __InitThreadData
0003:0002ad84  __ThreadDataSize
Module: d:\dev\watcom\lib386\os2\clib3s.lib(calloc.c)
0002:0006c230  calloc
Module: d:\dev\watcom\lib386\os2\clib3s.lib(register.c)
0002:0006c270  __initthread
0002:0006c280* _beginthread
0002:0006c2a0  _endthread
0002:0006c2b0* __RegisterThreadData
Module: d:\dev\watcom\lib386\os2\clib3s.lib(nheapmin.c)
0002:0006c300  _nheapshrink
0002:0006c300* _nheapmin
0002:0006c300* _heapmin
0002:0006c300  _heapshrink
Module: d:\dev\watcom\lib386\os2\clib3s.lib(amblksiz.c)
0003:0002ad94  _amblksiz
Module: d:\dev\watcom\lib386\os2\clib3s.lib(grownear.c)
0002:0006c5a0  __ExpandDGROUP
0003:0002ad98  _os2_obj_any_supported
Module: d:\dev\watcom\lib386\os2\clib3s.lib(nmemneed.c)
0002:0006c600  __nmemneed
Module: d:\dev\watcom\lib386\os2\clib3s.lib(thrdmax.c)
0002:0006c610  __GETMAXTHREADS
Module: d:\dev\watcom\lib386\os2\clib3s.lib(fwrite.c)
0002:0006c620  fwrite
Module: d:\dev\watcom\lib386\os2\clib3s.lib(tmpfl.c)
0002:0006c870  tmpfile
0002:0006c9e0+ __Init_Tmpfl
0003:0002ad9c+ __tmpfnext
Module: d:\dev\watcom\lib386\os2\clib3s.lib(environ.c)
0003:0003c8f0  __env_mask
0003:0003c8f4  environ
0003:0003c8f8* _wenviron
Module: d:\dev\watcom\lib386\os2\clib3s.lib(mbterm.c)
0002:0006c9f0  _mbterm
Module: d:\dev\watcom\lib386\os2\clib3s.lib(mbsnextc.c)
0002:0006ca30  _mbsnextc
Module: d:\dev\watcom\lib386\os2\clib3s.lib(mbcupper.c)
0002:0006ca70  _mbctoupper
Module: d:\dev\watcom\lib386\os2\clib3s.lib(mbsinc.c)
0002:0006caa0  _mbsinc
Module: d:\dev\watcom\lib386\os2\clib3s.lib(scnf.c)
0002:0006d6b0  __scnf
Module: d:\dev\watcom\lib386\os2\clib3s.lib(umaskval.c)
0003:0002ada0  __umaskval
Module: d:\dev\watcom\lib386\os2\clib3s.lib(os2fil64.c)
0003:0002ada4  __os2_DosOpenL
0003:0002ada8+ __os2_DosSetFilePtrL
0003:0002adac+ __os2_DosSetFileSizeL
0003:0002adb0+ __os2_DosSetFileLocksL
Module: d:\dev\watcom\lib386\os2\clib3s.lib(iomode.c)
0002:0006da20  __GetIOMode
0002:0006da40  __SetIOMode_nogrow
0003:0002adb4  __NFiles
0003:0002adb8  __init_mode
0003:0002ae08  __io_mode
Module: d:\dev\watcom\lib386\os2\clib3s.lib(isattos2.c)
0002:0006da60  isatty
Module: d:\dev\watcom\lib386\os2\clib3s.lib(stiomode.c)
0002:0006da90  __grow_iomode
0002:0006db50+ __shrink_iomode
0002:0006dbd0  __SetIOMode
Module: d:\dev\watcom\lib386\os2\clib3s.lib(dosret.c)
0002:0006dc50* __dosretax
0002:0006dc60* __dosret0
0002:0006dc70  __set_errno_dos
0002:0006dcb0* __set_errno_dos_reterr
Module: d:\dev\watcom\lib386\os2\clib3s.lib(tell.c)
0002:0006dcd0  tell
Module: d:\dev\watcom\lib386\os2\clib3s.lib(fsync.c)
0002:0006dcf0  fsync
Module: d:\dev\watcom\lib386\os2\clib3s.lib(qwrit.c)
0002:0006dd20  __qwrite
Module: d:\dev\watcom\lib386\math387s.lib(ldclass.c)
0002:0006dde1  __LDClass
0002:0006de2f* _FLClass
Module: d:\dev\watcom\lib386\os2\clib3s.lib(noefgfmt.c)
0003:0002af10  __EFG_printf
0003:0002af14  __EFG_scanf
Module: d:\dev\watcom\lib386\math387s.lib(efgfmt.c)
0002:0006de80  _EFG_Format
Module: d:\dev\watcom\lib386\math387s.lib(cnvs2d.c)
0002:0006e000  __cnvs2d
Module: d:\dev\watcom\lib386\os2\clib3s.lib(chipbug.c)
0002:0006e030  __verify_pentium_fdiv_bug
Module: d:\dev\watcom\lib386\math387s.lib(math2err.c)
0002:0006e086  __math1err
0002:0006e0b9  __math2err
Module: d:\dev\watcom\lib386\math387s.lib(math87e.c)
0002:0006e1f6  __math87_err
Module: d:\dev\watcom\lib386\os2\clib3s.lib(leapyear.c)
0002:0006e270  __leapyear
0003:00008590  __diyr
0003:000085aa  __dilyr
Module: ..\..\lib\zlib.lib(D:\home\Digi\projects\port\SDL2\packages\zlib-1.2.8\trees.c)
0003:0000fa74  _dist_code
0003:0000fc74  _length_code
0002:0006e2c0  _tr_init
0002:0006f520  _tr_stored_block
0002:0006f5e0  _tr_flush_bits
0002:0006f600  _tr_align
0002:0006f780  _tr_flush_block
0002:0006f9d0* _tr_tally
Module: d:\dev\watcom\lib386\os2\clib3s.lib(flushall.c)
0002:000701f0  __flushall
0002:00070240  flushall
Module: d:\dev\watcom\lib386\os2\clib3s.lib(unlnkos2.c)
0002:00070250  unlink
Module: d:\dev\watcom\lib386\os2\clib3s.lib(gtcheos2.c)
0002:00070270  getche
Module: d:\dev\watcom\lib386\os2\clib3s.lib(iomodtty.c)
0002:000702a0  __ChkTTYIOMode
0002:000702f0* __IOMode
Module: d:\dev\watcom\lib386\os2\clib3s.lib(d2ttime.c)
0002:00070310  _d2ttime
Module: d:\dev\watcom\lib386\os2\clib3s.lib(nmsize.c)
0002:000703a0  _nmsize
0002:000703a0* _msize
Module: d:\dev\watcom\lib386\os2\clib3s.lib(nexpand.c)
0002:000703b0* _expand
0002:000703d0+ __HeapManager_expand
0002:00070590  _nexpand
Module: ..\..\lib\libtiff.lib(D:\home\Digi\projects\port\SDL2\packages\tiff-4.0.3\libtiff\tif_dumpmode.c)
0002:00070760  TIFFInitDumpMode
Module: ..\..\lib\libtiff.lib(D:\home\Digi\projects\port\SDL2\packages\tiff-4.0.3\libtiff\tif_lzw.c)
0002:00071ea0  TIFFInitLZW
Module: ..\..\lib\libtiff.lib(D:\home\Digi\projects\port\SDL2\packages\tiff-4.0.3\libtiff\tif_packbits.c)
0002:00072490  TIFFInitPackBits
Module: ..\..\lib\libtiff.lib(D:\home\Digi\projects\port\SDL2\packages\tiff-4.0.3\libtiff\tif_thunder.c)
0002:00072850  TIFFInitThunderScan
Module: ..\..\lib\libtiff.lib(D:\home\Digi\projects\port\SDL2\packages\tiff-4.0.3\libtiff\tif_next.c)
0002:00072a80  TIFFInitNeXT
Module: ..\..\lib\libtiff.lib(D:\home\Digi\projects\port\SDL2\packages\tiff-4.0.3\libtiff\tif_fax3.c)
0003:0000ff44+ TIFFFaxWhiteCodes
0003:000101d2+ TIFFFaxBlackCodes
0002:00074450+ _TIFFFax3fillruns
0002:00075f90  TIFFInitCCITTFax3
0002:00076c00  TIFFInitCCITTFax4
0002:00077280  TIFFInitCCITTRLE
0002:000772d0  TIFFInitCCITTRLEW
Module: ..\..\lib\libtiff.lib(D:\home\Digi\projects\port\SDL2\packages\tiff-4.0.3\libtiff\tif_luv.c)
0002:00078360+ LogL16toY
0002:000783f0+ LogL16fromY
0002:000786a0+ XYZtoRGB24
0002:00078810+ LogL10toY
0002:00078870+ LogL10fromY
0002:00078bf0+ uv_encode
0002:00078d60+ uv_decode
0002:00078e20+ LogLuv24toXYZ
0002:00078f30+ LogLuv24fromXYZ
0002:00079330+ LogLuv32toXYZ
0002:00079430+ LogLuv32fromXYZ
0002:0007a1f0  TIFFInitSGILog
Module: d:\dev\watcom\lib386\os2\clib3s.lib(fputs.c)
0002:0007a350  fputs
Module: d:\dev\watcom\lib386\os2\clib3s.lib(wctomb.c)
0002:0007a410  wctomb
Module: d:\dev\watcom\lib386\os2\clib3s.lib(itoa.c)
0002:0007a450+ utoa
0002:0007a4b0  itoa
Module: d:\dev\watcom\lib386\os2\clib3s.lib(strupr.c)
0002:0007a4f0  strupr
Module: d:\dev\watcom\lib386\os2\clib3s.lib(lltoa.c)
0002:0007a510  ulltoa
0002:0007a580* lltoa
Module: d:\dev\watcom\lib386\os2\clib3s.lib(ltoa.c)
0002:0007a5c0  ultoa
0002:0007a620* ltoa
Module: d:\dev\watcom\lib386\os2\clib3s.lib(mbisdbcs.c)
0003:0002b470  __IsDBCS
Module: d:\dev\watcom\lib386\os2\clib3s.lib(mbislead.c)
0002:0007a660* _ismbblead
0003:0003ca90  __MBCSIsTable
Module: d:\dev\watcom\lib386\os2\clib3s.lib(libmno32.c)
0002:0007a690  __dll_initialize
Module: d:\dev\watcom\lib386\os2\clib3s.lib(libterm.c)
0002:0007a6a0  __dll_terminate
Module: d:\dev\watcom\lib386\os2\clib3s.lib(thredo32.c)
0002:0007a750  __CBeginThread
0002:0007a800  __CEndThread
Module: d:\dev\watcom\lib386\os2\clib3s.lib(heapen.c)
0003:0002b474  __heap_enabled
Module: d:\dev\watcom\lib386\os2\clib3s.lib(tmputil.c)
0002:0007a8f0  __MkTmpFile
0002:0007a970  __RmTmpFile
Module: d:\dev\watcom\lib386\os2\clib3s.lib(accssos2.c)
0002:0007a9b0  access
Module: d:\dev\watcom\lib386\os2\clib3s.lib(renamos2.c)
0002:0007aa10  rename
Module: d:\dev\watcom\lib386\os2\clib3s.lib(setenvp.c)
0002:0007aa40  __setenvp
0002:0007ab00  __freeenvp
Module: d:\dev\watcom\lib386\os2\clib3s.lib(mbinit.c)
0002:0007ab90  __mbinit
0003:0002b48c  __MBCodePage
Module: d:\dev\watcom\lib386\os2\clib3s.lib(mbdtoupp.c)
0002:0007aca0  _mbdtoupper
Module: d:\dev\watcom\lib386\os2\clib3s.lib(toupper.c)
0002:0007acc0  toupper
Module: d:\dev\watcom\lib386\os2\clib3s.lib(mbtowc.c)
0002:0007ace0  mbtowc
Module: d:\dev\watcom\lib386\os2\clib3s.lib(bits.c)
0002:0007adb0  _Bits
Module: d:\dev\watcom\lib386\os2\clib3s.lib(fdfs386.asm)
0002:0007adb8  __FDFS
Module: d:\dev\watcom\lib386\os2\clib3s.lib(hdlman.c)
0003:0002b490  __NHandles
Module: d:\dev\watcom\lib386\os2\clib3s.lib(rtcntrl.c)
0002:0007ae10* _SetLD64bit
0002:0007ae20* _SetLD80bit
0002:0007ae30  _LDisDouble
Module: d:\dev\watcom\lib386\math387s.lib(_matherr.c)
0002:0007af57* _set_matherr
0002:0007af61+ __rterrmsg
0002:0007afae  __rtmathfuncname
0002:0007afba* _matherr
0002:0007b00c+ __reporterrorsimple
0002:0007b085  __reporterror
0003:0002b4f8+ __matherr_handler
Module: d:\dev\watcom\lib386\os2\clib3s.lib(getchos2.c)
0002:0007b0f0  getch
Module: d:\dev\watcom\lib386\os2\clib3s.lib(putchos2.c)
0002:0007b1a0  putch
Module: d:\dev\watcom\lib386\os2\clib3s.lib(mktime.c)
0002:0007b1f0  mktime
Module: ..\..\lib\libtiff.lib(D:\home\Digi\projects\port\SDL2\packages\tiff-4.0.3\libtiff\tif_predict.c)
0002:0007c770  TIFFPredictorInit
0002:0007c850  TIFFPredictorCleanup
Module: ..\..\lib\libtiff.lib(D:\home\Digi\projects\port\SDL2\packages\tiff-4.0.3\libtiff\tif_fax3sm.c)
0003:00010924  TIFFFaxMainTable
0003:00010d24  TIFFFaxWhiteTable
0003:00018d24  TIFFFaxBlackTable
Module: d:\dev\watcom\lib386\os2\clib3s.lib(rand.c)
0002:0007c8c0  rand
0002:0007c8f0* srand
Module: d:\dev\watcom\lib386\math387s.lib(atan87.asm)
0002:0007c92e* atan
0002:0007c941* atan2
0002:0007c904* IF@ATAN
0002:0007c904* IF@DATAN
0002:0007c919* IF@ATAN2
0002:0007c919  IF@DATAN2
Module: d:\dev\watcom\lib386\os2\clib3s.lib(alphabet.c)
0003:00009a1c  __Alphabet
Module: d:\dev\watcom\lib386\os2\clib3s.lib(gtcwdos2.c)
0002:0007c960  getcwd
Module: d:\dev\watcom\lib386\os2\clib3s.lib(fullpath.c)
0002:0007ca40+ _sys_fullpath
0002:0007cb90  _fullpath
Module: d:\dev\watcom\lib386\os2\clib3s.lib(gtpidos2.c)
0002:0007cc20  getpid
Module: d:\dev\watcom\lib386\os2\clib3s.lib(clearenv.c)
0002:0007cc40  clearenv
Module: d:\dev\watcom\lib386\math387s.lib(__mtherr.asm)
0002:0007ccd4  __matherr
Module: d:\dev\watcom\lib386\os2\clib3s.lib(iobaddr.c)
0002:0007cce0  __get_std_stream
0002:0007cd00* __get_std_file
Module: d:\dev\watcom\lib386\math387s.lib(mathint.c)
0003:0002b4fc* signgam
0003:0002b500  __math_errhandling_flag
Module: d:\dev\watcom\lib386\os2\clib3s.lib(fenv.c)
0002:0007cd10* __fenv_h_default_environment
0002:0007cd30* feclearexcept
0002:0007cd50+ fegetexceptflag
0002:0007cd70  feraiseexcept
0002:0007cd90* feenableexcept
0002:0007cdb0* fedisableexcept
0002:0007cdd0* fesetexceptflag
0002:0007ce00* fetestexcept
0002:0007ce20* fegetround
0002:0007ce40* fesetround
0002:0007ce90* fegetenv
0002:0007cea0* feholdexcept
0002:0007cec0* fesetenv
0002:0007ced0* feupdateenv
Module: d:\dev\watcom\lib386\os2\clib3s.lib(thunk)
0002:0007cf0c  __TNK
0002:0007cef8* __TNC
Module: d:\dev\watcom\lib386\os2\clib3s.lib(far16fun)
0002:0007cf5c  __Far16Func2
0002:0007cfa5* __Far16Func
0002:0007cff3* __Far16Pascal2
0002:0007d03a* __Far16Pascal
0002:0007d086* __Far16Cdecl2
0002:0007d0d4* __Far16Cdecl
0002:0007d127  __FlatToFar16
0002:0007d130* __Far16ToFlat
Module: d:\dev\watcom\lib386\os2\clib3s.lib(locmktim.c)
0002:0007d140  __local_mktime
Module: d:\dev\watcom\lib386\os2\clib3s.lib(tzset.c)
0003:0002b504  __start_dst
0003:0002b528  __end_dst
0003:0002b650* tzname
0003:0002b658  timezone
0003:0002b65c  daylight
0003:0002b660  __dst_adjust
0002:0007d2b0* __DontCacheOSTZ
0002:0007d2c0* __CacheOSTZ
0002:0007d7d0+ __parse_tz
0002:0007da00  tzset
Module: d:\dev\watcom\lib386\os2\clib3s.lib(timeutil.c)
0002:0007db90  __isindst
Module: d:\dev\watcom\lib386\os2\clib3s.lib(chipw32.asm)
0002:0007dee4  __fpatan_wrap
Module: d:\dev\watcom\lib386\math387s.lib(matherr.c)
0002:0007df19  matherr
Module: d:\dev\watcom\lib386\os2\clib3s.lib(itsto32.c)
0002:0007df20  __init_threadstksize
Module: d:\dev\watcom\lib386\os2\clib3s.lib(chipa32.asm)
0002:0007df30  __fpatan_chk


                        +----------------------+
                        |   Imported Symbols   |
                        +----------------------+

Symbol                              Module
======                              ======

SDL_RWFromFile                      sdl2
SDL_strrchr                         sdl2
SDL_toupper                         sdl2
SDL_SetError                        sdl2
SDL_CreateTextureFromSurface        sdl2
SDL_FreeSurface                     sdl2
SDL_strncmp                         sdl2
SDL_ReadLE16                        sdl2
SDL_ClearError                      sdl2
SDL_Error                           sdl2
SDL_ReadLE32                        sdl2
SDL_GetError                        sdl2
SDL_strcmp                          sdl2
SDL_CreateRGBSurface                sdl2
SDL_memcmp                          sdl2
SDL_memcpy                          sdl2
SDL_SetColorKey                     sdl2
SDL_snprintf                        sdl2
SDL_memset                          sdl2
SDL_malloc                          sdl2
SDL_free                            sdl2
SDL_MapRGB                          sdl2
SDL_realloc                         sdl2
SDL_ConvertSurfaceFormat            sdl2
SDL_isspace                         sdl2
SDL_isdigit                         sdl2
SDL_ReadBE32                        sdl2
SDL_FillRect                        sdl2
SDL_UpperBlit                       sdl2
SDL_strtol                          sdl2
SDL_strncasecmp                     sdl2
SDL_sscanf                          sdl2
DosUnwindException                  DOSCALLS
DosGetInfoBlocks                    DOSCALLS
DosQueryModuleName                  DOSCALLS
DosDevConfig                        DOSCALLS
DosQuerySysInfo                     DOSCALLS
DosExit                             DOSCALLS
DosCloseMutexSem                    DOSCALLS
DosCreateMutexSem                   DOSCALLS
DosRequestMutexSem                  DOSCALLS
DosReleaseMutexSem                  DOSCALLS
DosLoadModule                       DOSCALLS
DosQueryProcAddr                    DOSCALLS
DosOpen                             DOSCALLS
DosWrite                            DOSCALLS
DosClose                            DOSCALLS
DosSetFilePtr                       DOSCALLS
DosRead                             DOSCALLS
DosQueryHType                       DOSCALLS
DosQueryFileInfo                    DOSCALLS
DosFreeModule                       DOSCALLS
DosFreeMem                          DOSCALLS
DosAllocMem                         DOSCALLS
DosQueryModuleHandle                DOSCALLS
DosSetRelMaxFH                      DOSCALLS
DosResetBuffer                      DOSCALLS
DosDelete                           DOSCALLS
DosPostEventSem                     DOSCALLS
DosCreateEventSem                   DOSCALLS
DosCreateThread                     DOSCALLS
DosCloseEventSem                    DOSCALLS
DosWaitEventSem                     DOSCALLS
DosQueryPathInfo                    DOSCALLS
DosMove                             DOSCALLS
DosQueryDBCSEnv                     NLS
DosQueryCp                          DOSCALLS
KBD16CHARIN                         KBDCALLS
VIO16WRTTTY                         VIOCALLS
DosQueryCurrentDir                  DOSCALLS
DosQueryCurrentDisk                 DOSCALLS
DosFlatToSel                        DOSCALLS
DosSelToFlat                        DOSCALLS


                        +--------------------+
                        |   Libraries Used   |
                        +--------------------+

..\..\lib\libpng.lib
..\..\lib\libtiff.lib
..\..\lib\zlib.lib
..\..\lib\jpeg.lib
..\..\lib\sdl2.lib
d:\dev\watcom\lib386\math387s.lib
d:\dev\watcom\lib386\os2\clib3s.lib
d:\dev\watcom\lib386\os2\os2386.lib


                        +-----------------------+
                        |   Linker Statistics   |
                        +-----------------------+

Stack size:  0000 (0.)
Memory size:  000bad39 (765241.)
Link time: 00:00.27
