Open Watcom Linker Version 2.0 beta Apr 27 2014 22:18:18 (32-bit)
Copyright (c) 2002-2014 The Open Watcom Contributors. All Rights Reserved.
Portions Copyright (c) 1985-2002 Sybase, Inc. All Rights Reserved.
Created on:       16/02/23 23:15:10
Executable Image: ..\..\dll\sdl2ttf.dll
creating an OS/2 and eComStation dynamic link library
symbol __set_commode_ removed
symbol _heapenable removed
symbol __set_handles removed
symbol _grow_handles removed


                        +------------+
                        |   Groups   |
                        +------------+

Group                           Address              Size
=====                           =======              ====

DGROUP                          0003:00000000        00017290



                        +--------------+
                        |   Segments   |
                        +--------------+

Segment                Class          Group          Address         Size
=======                =====          =====          =======         ====

_TEXT16                CODE           AUTO           0001:00000000   00000068
BEGTEXT                CODE           AUTO           0002:00000000   00000007
_TEXT                  CODE           AUTO           0002:00000010   0005b7eb
_NULL                  BEGDATA        DGROUP         0003:00000000   00000004
_AFTERNULL             BEGDATA        DGROUP         0003:00000004   00000000
CONST                  DATA           DGROUP         0003:00000004   00001784
CONST2                 DATA           DGROUP         0003:00001788   00014c38
_DATA                  DATA           DGROUP         0003:000163c0   00000530
XIB                    DATA           DGROUP         0003:000168f0   00000000
XI                     DATA           DGROUP         0003:000168f0   00000036
XIE                    DATA           DGROUP         0003:00016926   00000000
YIB                    DATA           DGROUP         0003:00016926   00000000
YI                     DATA           DGROUP         0003:00016926   00000012
YIE                    DATA           DGROUP         0003:00016938   00000000
TIB                    DATA           DGROUP         0003:00016938   00000000
TI                     DATA           DGROUP         0003:00016938   00000000
TIE                    DATA           DGROUP         0003:00016938   00000000
DATA                   DATA           DGROUP         0003:00016938   00000000
_BSS                   BSS            DGROUP         0003:00016938   00000951
STACK                  STACK          DGROUP         0003:00017290   00000000


                        +----------------+
                        |   Memory Map   |
                        +----------------+

* = unreferenced symbol
+ = symbol only referenced locally

Address        Symbol
=======        ======

Module: SDL_ttf.obj(D:\home\Digi\projects\port\SDL2\packages\SDL2_ttf-2.0.14\SDL_ttf.c)
0002:000001e0+ TTF_Linked_Version
0002:00000200+ TTF_ByteSwappedUNICODE
0002:00000230+ TTF_Init
0002:000002c0+ TTF_OpenFontIndexRW
0002:000006c0+ TTF_OpenFontRW
0002:000006e0+ TTF_OpenFontIndex
0002:00000710+ TTF_OpenFont
0002:00001140+ TTF_CloseFont
0002:00001450+ TTF_FontHeight
0002:00001460+ TTF_FontAscent
0002:00001470+ TTF_FontDescent
0002:00001480+ TTF_FontLineSkip
0002:00001490+ TTF_GetFontKerning
0002:000014a0+ TTF_SetFontKerning
0002:000014b0+ TTF_FontFaces
0002:000014c0+ TTF_FontFaceIsFixedWidth
0002:000014d0+ TTF_FontFaceFamilyName
0002:000014e0+ TTF_FontFaceStyleName
0002:000014f0+ TTF_GlyphIsProvided
0002:00001510+ TTF_GlyphMetrics
0002:000015d0+ TTF_SizeText
0002:000016a0+ TTF_SizeUTF8
0002:000018b0+ TTF_SizeUNICODE
0002:00001990+ TTF_RenderText_Solid
0002:00001a60+ TTF_RenderUTF8_Solid
0002:00001de0+ TTF_RenderUNICODE_Solid
0002:00001ec0+ TTF_RenderGlyph_Solid
0002:00001f00+ TTF_RenderText_Shaded
0002:00001fd0+ TTF_RenderUTF8_Shaded
0002:000023e0+ TTF_RenderUNICODE_Shaded
0002:000024c0+ TTF_RenderGlyph_Shaded
0002:00002510+ TTF_RenderText_Blended
0002:000025e0+ TTF_RenderUTF8_Blended
0002:00002950+ TTF_RenderUNICODE_Blended
0002:00002a30+ TTF_RenderText_Blended_Wrapped
0002:00002b20+ TTF_RenderUTF8_Blended_Wrapped
0002:00003040+ TTF_RenderUNICODE_Blended_Wrapped
0002:00003120+ TTF_RenderGlyph_Blended
0002:00003160+ TTF_SetFontStyle
0002:00003190+ TTF_GetFontStyle
0002:000031a0+ TTF_SetFontOutline
0002:000031c0+ TTF_GetFontOutline
0002:000031d0+ TTF_SetFontHinting
0002:00003230+ TTF_GetFontHinting
0002:00003270+ TTF_Quit
0002:000032a0+ TTF_WasInit
0002:000032b0+ TTF_GetFontKerningSize
0002:000032e0+ TTF_GetFontKerningSizeGlyphs
Module: ..\..\lib\freetype.lib(D:\home\Digi\projects\port\SDL2\packages\SDL2_ttf-2.0.14\external\freetype-2.4.12\src\base\ftinit.c)
0002:000033b0+ FT_Add_Default_Modules
0002:000033e0  FT_Init_FreeType
0002:00003430  FT_Done_FreeType
Module: ..\..\lib\freetype.lib(D:\home\Digi\projects\port\SDL2\packages\SDL2_ttf-2.0.14\external\freetype-2.4.12\src\base\ftbase.c)
0003:000017e8+ ft_raccess_guess_table
0002:000034d0  FT_Get_Advance
0002:00003570+ FT_Get_Advances
0002:000036a0  FT_RoundFix
0002:000036c0* FT_CeilFix
0002:000036e0* FT_FloorFix
0002:00003700+ FT_MSB
0002:00003750  FT_Hypot
0002:00003880  FT_MulDiv
0002:00003960  FT_MulDiv_No_Round
0002:00003a10  FT_MulFix
0002:00003aa0  FT_DivFix
0002:00003b50* FT_Matrix_Multiply
0002:00003c20  FT_Matrix_Invert
0002:00003cb0  FT_Matrix_Multiply_Scaled
0002:00003da0  FT_Vector_Transform_Scaled
0002:00003e30* FT_SqrtFixed
0002:00003e70  ft_corner_orientation
0002:00003f40  ft_corner_is_flat
0002:00003fc0  FT_GlyphLoader_New
0002:00004000  FT_GlyphLoader_Rewind
0002:00004030+ FT_GlyphLoader_Reset
0002:000040d0  FT_GlyphLoader_Done
0002:00004170  FT_GlyphLoader_CreateExtra
0002:000041f0  FT_GlyphLoader_CheckPoints
0002:00004360  FT_GlyphLoader_CheckSubGlyphs
0002:000043d0  FT_GlyphLoader_Prepare
0002:00004400  FT_GlyphLoader_Add
0002:00004460  FT_GlyphLoader_CopyPoints
0002:00004580  ft_service_list_lookup
0002:000045d0  ft_validator_init
0002:000045f0* ft_validator_run
0002:00004600  ft_validator_error
0002:00004620+ FT_Stream_New
0002:00004700+ FT_Stream_Free
0002:000047b0  ft_glyphslot_free_bitmap
0002:00004800  ft_glyphslot_set_bitmap
0002:00004820  ft_glyphslot_alloc_bitmap
0002:000049c0  FT_New_GlyphSlot
0002:00004a70  FT_Done_GlyphSlot
0002:00004ad0* FT_Set_Transform
0002:00004c20  FT_Load_Glyph
0002:00004fb0* FT_Load_Char
0002:00005400* FT_New_Face
0002:00005450* FT_New_Memory_Face
0002:00006160  FT_Open_Face
0002:000065a0* FT_Attach_File
0002:000065e0+ FT_Attach_Stream
0002:00006670* FT_Reference_Face
0002:00006680  FT_Done_Face
0002:00006720  FT_New_Size
0002:00006800  FT_Done_Size
0002:000068c0  FT_Match_Size
0002:000069c0  ft_synthesize_vertical_metrics
0002:00006aa0  FT_Select_Metrics
0002:00006b60  FT_Request_Metrics
0002:00006dc0  FT_Select_Size
0002:00006e20  FT_Request_Size
0002:00006ec0  FT_Set_Char_Size
0002:00006f40  FT_Set_Pixel_Sizes
0002:00006fc0  FT_Get_Kerning
0002:000070c0* FT_Get_Track_Kerning
0002:00007140  FT_Select_Charmap
0002:000071b0  FT_Set_Charmap
0002:00007220* FT_Get_Charmap_Index
0002:00007290* FT_CMap_Done
0002:00007340  FT_CMap_New
0002:00007420  FT_Get_Char_Index
0002:00007450* FT_Get_First_Char
0002:000074c0  FT_Get_Next_Char
0002:00007530* FT_Face_GetCharVariantIndex
0002:00007580* FT_Face_GetCharVariantIsDefault
0002:000075c0* FT_Face_GetVariantSelectors
0002:00007600* FT_Face_GetVariantsOfChar
0002:00007640* FT_Face_GetCharsOfVariant
0002:00007680* FT_Get_Name_Index
0002:00007700  FT_Get_Glyph_Name
0002:000077b0* FT_Get_Postscript_Name
0002:00007830* FT_Get_Sfnt_Table
0002:00007890* FT_Load_Sfnt_Table
0002:00007900* FT_Sfnt_Table_Info
0002:00007970* FT_Get_CMap_Language_ID
0002:000079e0+ FT_Get_CMap_Format
0002:00007a50  FT_Activate_Size
0002:00007a70  FT_Lookup_Renderer
0002:00007c50* FT_Get_Renderer
0002:00007c70+ FT_Set_Renderer
0002:00007d20  FT_Render_Glyph_Internal
0002:00007df0  FT_Render_Glyph
0002:00007e90  FT_Add_Module
0002:00008030  FT_Get_Module
0002:00008090  FT_Get_Module_Interface
0002:000080b0  ft_module_get_service
0002:00008120+ FT_Remove_Module
0002:00008180+ ft_property_do
0002:00008260* FT_Property_Set
0002:00008290* FT_Property_Get
0002:000082c0* FT_Reference_Library
0002:000082d0  FT_New_Library
0002:00008370* FT_Library_Version
0002:000083b0  FT_Done_Library
0002:000084a0* FT_Set_Debug_Hook
0002:000084d0* FT_Get_TrueType_Engine_Type
0002:00008510* FT_Get_SubGlyph_Info
0002:00008580  FT_Outline_Decompose
0002:00008950+ FT_Outline_New_Internal
0002:00008a30  FT_Outline_New
0002:00008a60+ FT_Outline_Check
0002:00008ad0  FT_Outline_Copy
0002:00008b80+ FT_Outline_Done_Internal
0002:00008bf0  FT_Outline_Done
0002:00008c10  FT_Outline_Get_CBox
0002:00008c90  FT_Outline_Translate
0002:00008cd0* FT_Outline_Reverse
0002:00008d60+ FT_Outline_Render
0002:00008e10* FT_Outline_Get_Bitmap
0002:00008e70  FT_Vector_Transform
0002:00008ee0  FT_Outline_Transform
0002:00008f20* FT_Outline_Embolden
0002:00008f40+ FT_Outline_EmboldenXY
0002:000092a0  FT_Outline_Get_Orientation
0002:00009400+ FT_Raccess_Get_HeaderInfo
0002:000095f0+ FT_Raccess_Get_DataOffsets
0002:00009800+ FT_Raccess_Guess
0002:00009e60* FT_Get_Sfnt_Name_Count
0002:00009e90* FT_Get_Sfnt_Name
0002:00009fa0  FT_Stream_OpenMemory
0002:00009fd0  FT_Stream_Close
0002:00009ff0  FT_Stream_Seek
0002:0000a030  FT_Stream_Skip
0002:0000a050  FT_Stream_Pos
0002:0000a060  FT_Stream_Read
0002:0000a080  FT_Stream_ReadAt
0002:0000a100  FT_Stream_TryRead
0002:0000a160  FT_Stream_ExtractFrame
0002:0000a190  FT_Stream_ReleaseFrame
0002:0000a1d0  FT_Stream_EnterFrame
0002:0000a290  FT_Stream_ExitFrame
0002:0000a2d0  FT_Stream_GetChar
0002:0000a2f0  FT_Stream_GetUShort
0002:0000a320  FT_Stream_GetUShortLE
0002:0000a350* FT_Stream_GetUOffset
0002:0000a390  FT_Stream_GetULong
0002:0000a3d0  FT_Stream_GetULongLE
0002:0000a410  FT_Stream_ReadChar
0002:0000a480  FT_Stream_ReadUShort
0002:0000a500  FT_Stream_ReadUShortLE
0002:0000a580  FT_Stream_ReadUOffset
0002:0000a610  FT_Stream_ReadULong
0002:0000a6a0  FT_Stream_ReadULongLE
0002:0000a730  FT_Stream_ReadFields
0002:0000ac50  FT_Cos
0002:0000ac90  FT_Sin
0002:0000acb0  FT_Tan
0002:0000acf0  FT_Atan2
0002:0000ad30* FT_Vector_Unit
0002:0000ad70+ FT_Vector_Rotate
0002:0000ae40  FT_Vector_Length
0002:0000aed0* FT_Vector_Polarize
0002:0000af40  FT_Vector_From_Polar
0002:0000af60  FT_Angle_Diff
0002:0000af90  ft_mem_alloc
0002:0000aff0  ft_mem_qalloc
0002:0000b030  ft_mem_realloc
0002:0000b0b0  ft_mem_qrealloc
0002:0000b170  ft_mem_free
0002:0000b190+ ft_mem_dup
0002:0000b200  ft_mem_strdup
0002:0000b230  ft_mem_strcpyn
0002:0000b260  FT_List_Find
0002:0000b280+ FT_List_Add
0002:0000b2b0* FT_List_Insert
0002:0000b2e0+ FT_List_Remove
0002:0000b310+ FT_List_Up
0002:0000b350* FT_List_Iterate
0002:0000b390+ FT_List_Finalize
0002:0000b3e0  ft_highpow2
Module: d:\dev\watcom\lib386\math387s.lib(fchop87.asm)
0002:0000b3f0  __CHP
Module: ..\..\lib\freetype.lib(D:\home\Digi\projects\port\SDL2\packages\SDL2_ttf-2.0.14\external\freetype-2.4.12\src\base\ftglyph.c)
0002:0000b6f0  FT_Glyph_Copy
0002:0000b7a0  FT_Get_Glyph
0002:0000b870+ FT_Glyph_Transform
0002:0000b8d0* FT_Glyph_Get_CBox
0002:0000b960  FT_Glyph_To_Bitmap
0002:0000bb50  FT_Done_Glyph
0003:00001888+ ft_bitmap_glyph_class
0003:000018a8  ft_outline_glyph_class
Module: ..\..\lib\freetype.lib(D:\home\Digi\projects\port\SDL2\packages\SDL2_ttf-2.0.14\external\freetype-2.4.12\src\base\ftstroke.c)
0002:0000bb80* FT_Outline_GetInsideBorder
0002:0000bba0+ FT_Outline_GetOutsideBorder
0002:0000c750  FT_Stroker_New
0002:0000c7b0  FT_Stroker_Set
0002:0000c7f0+ FT_Stroker_Rewind
0002:0000c820  FT_Stroker_Done
0002:0000cf70+ FT_Stroker_LineTo
0002:0000d090+ FT_Stroker_ConicTo
0002:0000d6b0+ FT_Stroker_CubicTo
0002:0000ddf0+ FT_Stroker_BeginSubPath
0002:0000df40+ FT_Stroker_EndSubPath
0002:0000e050+ FT_Stroker_GetBorderCounts
0002:0000e0d0+ FT_Stroker_GetCounts
0002:0000e150+ FT_Stroker_ExportBorder
0002:0000e190+ FT_Stroker_Export
0002:0000e1c0+ FT_Stroker_ParseOutline
0002:0000e4f0  FT_Glyph_Stroke
0002:0000e5f0* FT_Glyph_StrokeBorder
Module: d:\dev\watcom\lib386\os2\clib3s.lib(stack386.c)
0002:0000e730  stackavail
Module: d:\dev\watcom\lib386\os2\clib3s.lib(stko32.asm)
0002:0000e755  __STK
0002:0000e745* __CHK
0002:0000e781  __GRO
0002:0000e774* __STKOVERFLOW
Module: d:\dev\watcom\lib386\os2\clib3s.lib(dstrt386)
0002:0000e7a2  __DLLstart_
0002:0000e7a2* __DLLstartw_
Module: d:\dev\watcom\lib386\os2\clib3s.lib(fltused.c)
0003:000163d8  _fltused_
Module: d:\dev\watcom\lib386\os2\clib3s.lib(_8087386.asm)
0003:000163dc  __8087
0003:000163dd  __real87
Module: ..\..\lib\freetype.lib(D:\home\Digi\projects\port\SDL2\packages\SDL2_ttf-2.0.14\external\freetype-2.4.12\src\autofit\autofit.c)
0003:000018dc+ af_dummy_script_class
0003:00001a38+ af_latin_script_class
0003:00001f64+ af_cjk_script_class
0003:00001fc8+ af_indic_script_class
0002:0000ee30* af_glyph_hints_dump_segments
0002:0000ee30* af_glyph_hints_dump_points
0002:0000ee70* af_glyph_hints_get_segment_offset
0002:0000ee70* af_glyph_hints_get_num_segments
0002:0000ee80* af_glyph_hints_dump_edges
0002:00014390+ af_property_get_face_globals
0002:000143f0+ af_property_set
0002:00014470+ af_property_get
0003:00002004+ af_autofitter_interface
0003:00002014  autofit_module_class
Module: ..\..\lib\freetype.lib(D:\home\Digi\projects\port\SDL2\packages\SDL2_ttf-2.0.14\external\freetype-2.4.12\src\truetype\truetype.c)
0003:0000207c  tt_driver_class
0003:000022fc+ tt_default_graphics_state
0002:00018850+ TT_New_Context
0002:0001c290+ TT_RunIns
Module: ..\..\lib\freetype.lib(D:\home\Digi\projects\port\SDL2\packages\SDL2_ttf-2.0.14\external\freetype-2.4.12\src\type1\type1.c)
0003:00002bf8  t1_driver_class
Module: ..\..\lib\freetype.lib(D:\home\Digi\projects\port\SDL2\packages\SDL2_ttf-2.0.14\external\freetype-2.4.12\src\cff\cff.c)
0003:00002cd0  cff_driver_class
0003:00003b20+ cff_cmap_encoding_class_rec
0003:00003b48+ cff_cmap_unicode_class_rec
Module: ..\..\lib\freetype.lib(D:\home\Digi\projects\port\SDL2\packages\SDL2_ttf-2.0.14\external\freetype-2.4.12\src\cid\type1cid.c)
0003:0000424c  t1cid_driver_class
Module: ..\..\lib\freetype.lib(D:\home\Digi\projects\port\SDL2\packages\SDL2_ttf-2.0.14\external\freetype-2.4.12\src\pfr\pfr.c)
0003:00004348+ pfr_cmap_class_rec
0003:00004370+ pfr_metrics_service_rec
0003:00004394  pfr_driver_class
Module: ..\..\lib\freetype.lib(D:\home\Digi\projects\port\SDL2\packages\SDL2_ttf-2.0.14\external\freetype-2.4.12\src\type42\type42.c)
0003:000046bc  t42_driver_class
Module: ..\..\lib\freetype.lib(D:\home\Digi\projects\port\SDL2\packages\SDL2_ttf-2.0.14\external\freetype-2.4.12\src\winfonts\winfnt.c)
0003:000048c4  winfnt_driver_class
Module: ..\..\lib\freetype.lib(D:\home\Digi\projects\port\SDL2\packages\SDL2_ttf-2.0.14\external\freetype-2.4.12\src\pcf\pcf.c)
0003:00004a38+ pcf_cmap_class
0003:00004a80  pcf_driver_class
Module: ..\..\lib\freetype.lib(D:\home\Digi\projects\port\SDL2\packages\SDL2_ttf-2.0.14\external\freetype-2.4.12\src\psaux\psaux.c)
0003:00004ae0+ ps_table_funcs
0003:00004af0+ ps_parser_funcs
0003:00004b24+ t1_builder_funcs
0003:00004b44+ t1_decoder_funcs
0003:00004b50+ afm_parser_funcs
0003:00004b5c+ t1_cmap_classes
0003:00004b88  psaux_module_class
0003:00004c18+ t1_cmap_standard_class_rec
0003:00004c40+ t1_cmap_expert_class_rec
0003:00004c68+ t1_cmap_custom_class_rec
0003:00004c90+ t1_cmap_unicode_class_rec
Module: ..\..\lib\freetype.lib(D:\home\Digi\projects\port\SDL2\packages\SDL2_ttf-2.0.14\external\freetype-2.4.12\src\psnames\psnames.c)
0003:00014178  psnames_module_class
Module: ..\..\lib\freetype.lib(D:\home\Digi\projects\port\SDL2\packages\SDL2_ttf-2.0.14\external\freetype-2.4.12\src\pshinter\pshinter.c)
0002:00040370+ ps_hints_apply
0003:000141a8  pshinter_module_class
Module: ..\..\lib\freetype.lib(D:\home\Digi\projects\port\SDL2\packages\SDL2_ttf-2.0.14\external\freetype-2.4.12\src\raster\raster.c)
0003:000141cc+ ft_standard_raster
0003:000141e4  ft_raster1_renderer_class
0003:00014220+ ft_raster5_renderer_class
Module: ..\..\lib\freetype.lib(D:\home\Digi\projects\port\SDL2\packages\SDL2_ttf-2.0.14\external\freetype-2.4.12\src\sfnt\sfnt.c)
0003:000144f0+ tt_cmap0_class_rec
0003:00014524+ tt_cmap2_class_rec
0003:00014558+ tt_cmap4_class_rec
0003:0001458c+ tt_cmap6_class_rec
0003:000145c0+ tt_cmap8_class_rec
0003:000145f4+ tt_cmap10_class_rec
0003:00014628+ tt_cmap12_class_rec
0003:0001465c+ tt_cmap13_class_rec
0003:00014690+ tt_cmap14_class_rec
0003:00014848  sfnt_module_class
Module: ..\..\lib\freetype.lib(D:\home\Digi\projects\port\SDL2\packages\SDL2_ttf-2.0.14\external\freetype-2.4.12\src\smooth\smooth.c)
0003:00014884+ ft_grays_raster
0003:0001489c  ft_smooth_renderer_class
0003:000148d8  ft_smooth_lcd_renderer_class
0003:00014914  ft_smooth_lcdv_renderer_class
Module: ..\..\lib\freetype.lib(D:\home\Digi\projects\port\SDL2\packages\SDL2_ttf-2.0.14\external\freetype-2.4.12\src\bdf\bdf.c)
0003:00014f80+ bdf_cmap_class
0003:00014fc8  bdf_driver_class
Module: ..\..\lib\freetype.lib(D:\home\Digi\projects\port\SDL2\packages\SDL2_ttf-2.0.14\external\freetype-2.4.12\src\base\ftsystem.c)
0002:00050000  FT_Stream_Open
0002:000500b0  FT_New_Memory
0002:000500f0  FT_Done_Memory
Module: d:\dev\watcom\lib386\os2\clib3s.lib(memmove.c)
0002:00050100  memmove
Module: d:\dev\watcom\lib386\os2\clib3s.lib(cmp386.asm)
0002:00050160  strcmp
Module: d:\dev\watcom\lib386\os2\clib3s.lib(stjmp386.asm)
0002:000502a4  _setjmp
0002:000502dd  longjmp
Module: d:\dev\watcom\lib386\os2\clib3s.lib(memset.c)
0002:00050360  memset
Module: d:\dev\watcom\lib386\os2\clib3s.lib(qsort.c)
0002:00050400  qsort
Module: d:\dev\watcom\lib386\os2\clib3s.lib(strrchr.c)
0002:00050b30  strrchr
Module: d:\dev\watcom\lib386\os2\clib3s.lib(strncpy.c)
0002:00050b50  strncpy
Module: ..\..\lib\freetype.lib(D:\home\Digi\projects\port\SDL2\packages\SDL2_ttf-2.0.14\external\freetype-2.4.12\src\base\ftbitmap.c)
0002:00050ba0  FT_Bitmap_New
0002:00050bc0  FT_Bitmap_Copy
0002:00050f00* FT_Bitmap_Embolden
0002:000511e0+ FT_Bitmap_Convert
0002:000515a0* FT_GlyphSlot_Own_Bitmap
0002:00051610  FT_Bitmap_Done
Module: d:\dev\watcom\lib386\os2\clib3s.lib(xmsgo32.c)
0002:00051660+ __exit_with_msg
0002:000516b0  __fatal_runtime_error
Module: d:\dev\watcom\lib386\os2\clib3s.lib(maino32.c)
0003:000163e0  __FirstThreadData
0003:000163e4  __GetThreadPtr
0003:000163e8  _AccessFileH
0003:000163ec  _ReleaseFileH
0003:000163f0  _AccessIOB
0003:000163f4  _ReleaseIOB
0003:000163f8  _AccessNHeap
0003:000163fc  _AccessFHeap
0003:00016400  _ReleaseNHeap
0003:00016404  _ReleaseFHeap
0003:00016408  _AccessTDList
0002:000516e8  __threadstack
0002:000516ef  __threadid
0002:000516f6* __OS2MainInit
0002:00051767  __OS2Init
0002:000517a8  __OS2Fini
0002:000517b0  __shutdown_stack_checking
0002:000517c5  __exit
0003:0001640c  _ReleaseTDList
0003:00016410  __sig_init_rtn
0003:00016414  __sig_fini_rtn
0003:00016418  __threadstksize
0003:0001641c+ __process_fini
0003:00016940  __Is_DLL
0003:00016944+ __saved_CS
Module: d:\dev\watcom\lib386\os2\clib3s.lib(dmaino32.c)
0002:0005180c  __LibMain
Module: d:\dev\watcom\lib386\os2\clib3s.lib(segdefns)
0002:00000003  ___begtext
0003:00000000* __nullarea
0003:000168f0  _Start_XI
0003:00016926  _End_XI
0003:00016926  _Start_YI
0003:00016938  _End_YI
Module: d:\dev\watcom\lib386\os2\clib3s.lib(setefg.c)
0002:00051a50  __setEFGfmt
Module: d:\dev\watcom\lib386\os2\clib3s.lib(chk8087.c)
0002:00051a70  _fpreset
0002:00051a90* __init_8087
0002:00051aa0  __chk8087
Module: d:\dev\watcom\lib386\os2\clib3s.lib(crwdata)
0003:00016461  _osmajor
0003:00016462  _osminor
0003:00016430  _LpDllName
0003:00016434  _LpwCmdLine
0003:00016438  _LpwPgmName
0003:0001643c  _LpwDllName
0003:00016428  _LpCmdLine
0003:0001642c  _LpPgmName
0003:00016420* _dynend
0003:00016424  _curbrk
0003:00016440* _STACKLOW
0003:00016444* _STACKTOP
0003:00016448  __ASTACKSIZ
0003:0001644c  __ASTACKPTR
0003:00016450  _cbyte
0003:00016454  _cbyte2
0003:00016458* __child
0003:0001645d  _Envptr
0003:0001645c  __no87
0003:00016463* __FPE_handler
Module: d:\dev\watcom\lib386\os2\clib3s.lib(strstr.c)
0002:00051af0  strstr
Module: d:\dev\watcom\lib386\os2\clib3s.lib(strncmp.c)
0002:00051ba0  strncmp
Module: d:\dev\watcom\lib386\os2\clib3s.lib(atol.c)
0002:00051be0  atol
Module: ..\..\lib\freetype.lib(D:\home\Digi\projects\port\SDL2\packages\SDL2_ttf-2.0.14\external\freetype-2.4.12\src\gzip\ftgzip.c)
0002:000548a0  FT_Stream_OpenGzip
Module: ..\..\lib\freetype.lib(D:\home\Digi\projects\port\SDL2\packages\SDL2_ttf-2.0.14\external\freetype-2.4.12\src\lzw\ftlzw.c)
0002:00054d40  FT_Stream_OpenLZW
0002:00055070+ ft_lzwstate_reset
0002:000550b0+ ft_lzwstate_init
0002:00055110+ ft_lzwstate_done
0002:00055180+ ft_lzwstate_io
Module: d:\dev\watcom\lib386\os2\clib3s.lib(sprintf.c)
0002:00055470  sprintf
Module: d:\dev\watcom\lib386\os2\clib3s.lib(nmalloc.c)
0002:000554a0+ _use_os2_high_mem
0002:000554d0* _os2lmalloc
0002:00055510* _os2hmalloc
0002:00055550  malloc
0002:00055560  _nmalloc
0003:00016468  __nheapbeg
0003:0001646c  __MiniHeapRover
0003:00016470  __LargestSizeB4MiniHeapRover
0003:00016d58  _os2_use_obj_any
Module: d:\dev\watcom\lib386\os2\clib3s.lib(nrealloc.c)
0002:000556b0  realloc
0002:000556d0+ _nrealloc
Module: d:\dev\watcom\lib386\os2\clib3s.lib(nfree.c)
0002:000557b0  free
0002:000557c0  _nfree
0003:00016d5c  __MiniHeapFreeRover
Module: d:\dev\watcom\lib386\os2\clib3s.lib(fclose.c)
0002:000558d0  __doclose
0002:00055990  __shutdown_stream
0002:000559c0  fclose
0003:00016d60+ __RmTmpFileFn
Module: d:\dev\watcom\lib386\os2\clib3s.lib(fseek.c)
0002:00055a50  fseek
Module: d:\dev\watcom\lib386\os2\clib3s.lib(fread.c)
0002:00055c00  fread
Module: d:\dev\watcom\lib386\os2\clib3s.lib(fopen.c)
0002:00055e00+ __open_flags
0002:00056020+ _fsopen
0002:00056080  fopen
0002:00056120* freopen
Module: d:\dev\watcom\lib386\os2\clib3s.lib(ftell.c)
0002:000561a0  ftell
Module: d:\dev\watcom\lib386\os2\clib3s.lib(ljmphdl.c)
0003:00016474  __longjmp_handler
Module: d:\dev\watcom\lib386\os2\clib3s.lib(__stos.asm)
0002:00056230  __STOSB
0002:00056267* __STOSD
Module: d:\dev\watcom\lib386\os2\clib3s.lib(enterdb.c)
0002:000562e0  __EnterWVIDEO
0003:00016478+ __WD_Present
Module: d:\dev\watcom\lib386\os2\clib3s.lib(cinit.c)
0002:00056310  __CommonInit
0003:00016d64  __hmodule
Module: d:\dev\watcom\lib386\os2\clib3s.lib(initrtns.c)
0002:00056330  __InitRtns
0002:00056390  __FiniRtns
Module: d:\dev\watcom\lib386\os2\clib3s.lib(lmaino32.c)
0002:00056400  LibMain
Module: d:\dev\watcom\lib386\os2\clib3s.lib(mthread.c)
0002:00056460+ __CloseSemaphore
0002:00056490+ __AccessSemaphore
0002:00056500+ __ReleaseSemaphore
0002:00056560+ __AccessIOB
0002:00056570+ __ReleaseIOB
0002:00056580+ __AccessFileH
0002:000565a0+ __ReleaseFileH
0002:000565c0+ __AccessNHeap
0002:000565d0+ __ReleaseNHeap
0002:000565e0+ __AccessFHeap
0002:000565f0+ __ReleaseFHeap
0002:00056600+ __AccessTDList
0002:00056610+ __ReleaseTDList
0002:00056620+ __MultipleThread
0002:00056660  __AllocInitThreadData
0002:000566b0  __FreeInitThreadData
0002:000566d0  __OS2AddThread
0002:00056750  __OS2RemoveThread
0002:000567a0  __InitMultipleThread
0003:0001647c+ __AccessSema4
0003:00016480+ __ReleaseSema4
0003:00016484+ __CloseSema4
Module: d:\dev\watcom\lib386\os2\clib3s.lib(ddgrpo32.c)
0002:00056a10  __disallow_single_dgroup
Module: d:\dev\watcom\lib386\os2\clib3s.lib(atouni.c)
0002:00056c60  _atouni
Module: d:\dev\watcom\lib386\os2\clib3s.lib(trdalloc.c)
0002:00056ca0  __InitThreadProcessing
0002:00056cc0  __FiniThreadProcessing
0003:00017174  __ThreadData
Module: d:\dev\watcom\lib386\os2\clib3s.lib(maxthrds.c)
0003:00016488  __MaxThreads
Module: d:\dev\watcom\lib386\os2\clib3s.lib(dosseg)
0000:00001234  __DOSseg__
Module: d:\dev\watcom\lib386\os2\clib3s.lib(noefgfmt.c)
0003:0001648c  __EFG_printf
0003:00016490  __EFG_scanf
Module: d:\dev\watcom\lib386\math387s.lib(efgfmt.c)
0002:00056d60  _EFG_Format
Module: d:\dev\watcom\lib386\math387s.lib(cnvs2d.c)
0002:00056ee0  __cnvs2d
Module: d:\dev\watcom\lib386\os2\clib3s.lib(8087cw.c)
0003:00016494  __8087cw
Module: d:\dev\watcom\lib386\os2\clib3s.lib(ini87386.asm)
0002:00056f0c  __x87id
Module: d:\dev\watcom\lib386\os2\clib3s.lib(istable.c)
0002:00056f40  _IsTable
Module: d:\dev\watcom\lib386\os2\clib3s.lib(vsprintf.c)
0002:00057070  vsprintf
Module: d:\dev\watcom\lib386\os2\clib3s.lib(grownear.c)
0002:00057250  __ExpandDGROUP
0003:00016498  _os2_obj_any_supported
Module: d:\dev\watcom\lib386\os2\clib3s.lib(nmemneed.c)
0002:000572b0  __nmemneed
Module: d:\dev\watcom\lib386\os2\clib3s.lib(mem.c)
0002:000572c0  __MemAllocator
0002:00057370  __MemFree
Module: d:\dev\watcom\lib386\os2\clib3s.lib(nmsize.c)
0002:000574b0  _nmsize
0002:000574b0* _msize
Module: d:\dev\watcom\lib386\os2\clib3s.lib(nexpand.c)
0002:000574c0* _expand
0002:000574e0+ __HeapManager_expand
0002:000576a0  _nexpand
Module: d:\dev\watcom\lib386\os2\clib3s.lib(__lseek.c)
0002:000576f0  __lseek
Module: d:\dev\watcom\lib386\os2\clib3s.lib(_clseos2.c)
0002:00057730  __close
Module: d:\dev\watcom\lib386\os2\clib3s.lib(flush.c)
0002:00057780  __flush
Module: d:\dev\watcom\lib386\os2\clib3s.lib(freefp.c)
0002:00057890  __freefp
0002:000578e0  __purgefp
Module: d:\dev\watcom\lib386\os2\clib3s.lib(iob.c)
0003:0001649c  __iob
0003:00017178  __OpenStreams
0003:0001717c  __ClosedStreams
Module: d:\dev\watcom\lib386\os2\clib3s.lib(lseek.c)
0002:00057920  lseek
Module: d:\dev\watcom\lib386\os2\clib3s.lib(seterrno.c)
0002:0005795d  __set_errno
0002:0005796e* __set_EDOM
0002:0005797c  __set_ERANGE
0002:0005798a* __set_EINVAL
0002:0005799d  __set_doserrno
Module: d:\dev\watcom\lib386\os2\clib3s.lib(tell.c)
0002:000579b0  tell
Module: d:\dev\watcom\lib386\os2\clib3s.lib(qread.c)
0002:000579d0  __qread
Module: d:\dev\watcom\lib386\os2\clib3s.lib(ioalloc.c)
0002:00057a10  __ioalloc
Module: d:\dev\watcom\lib386\os2\clib3s.lib(fgetc.c)
0002:00057ab0  __fill_buffer
0002:00057bc0* fgetc
Module: d:\dev\watcom\lib386\os2\clib3s.lib(comtflag.c)
0003:000166a4  _commode
Module: d:\dev\watcom\lib386\os2\clib3s.lib(textmode.c)
0003:000166a8  _fmode
Module: d:\dev\watcom\lib386\os2\clib3s.lib(tolower.c)
0002:00057c90  tolower
Module: d:\dev\watcom\lib386\os2\clib3s.lib(openos2.c)
0002:00057e70* open
0002:00057e90  sopen
Module: d:\dev\watcom\lib386\os2\clib3s.lib(chktty.c)
0002:00057ec0  __chktty
Module: d:\dev\watcom\lib386\os2\clib3s.lib(allocfp.c)
0002:00057f00  __allocfp
Module: d:\dev\watcom\lib386\os2\clib3s.lib(fflush.c)
0002:00057fd0  fflush
Module: d:\dev\watcom\lib386\os2\clib3s.lib(amblksiz.c)
0003:000166ac  _amblksiz
Module: d:\dev\watcom\lib386\os2\clib3s.lib(dllmno32.c)
0002:00057ff0  DllMain
Module: d:\dev\watcom\lib386\os2\clib3s.lib(trdlist.c)
0002:00058050  __GetThreadData
0002:00058180  __ReallocThreadData
0002:000582f0  __AddThreadData
0002:00058370  __RemoveThreadData
0002:000583d0* __ResizeThreadDataList
0002:00058420  __FreeThreadDataList
0002:00058460* __ActiveThreads
Module: d:\dev\watcom\lib386\os2\clib3s.lib(mthrdini.c)
0002:00058480  __InitThreadData
0003:000166b4  __ThreadDataSize
Module: d:\dev\watcom\lib386\os2\clib3s.lib(calloc.c)
0002:000584a0  calloc
Module: d:\dev\watcom\lib386\os2\clib3s.lib(register.c)
0002:000584e0  __initthread
0002:000584f0* _beginthread
0002:00058510  _endthread
0002:00058520* __RegisterThreadData
Module: d:\dev\watcom\lib386\os2\clib3s.lib(nheapmin.c)
0002:00058570  _nheapshrink
0002:00058570* _nheapmin
0002:00058570* _heapmin
0002:00058570  _heapshrink
Module: d:\dev\watcom\lib386\os2\clib3s.lib(thrdmax.c)
0002:00058660  __GETMAXTHREADS
Module: d:\dev\watcom\lib386\os2\clib3s.lib(rtcntrl.c)
0002:00058670* _SetLD64bit
0002:00058680* _SetLD80bit
0002:00058690  _LDisDouble
Module: d:\dev\watcom\lib386\math387s.lib(ldcvt.c)
0002:00058785  _LDScale10x
0002:00058cf1  __LDcvt
Module: d:\dev\watcom\lib386\math387s.lib(strtod.c)
0002:000596a4+ __Strtold
0002:00059818  strtod
Module: d:\dev\watcom\lib386\os2\clib3s.lib(prtf.c)
0002:00059980  __prtf
Module: d:\dev\watcom\lib386\os2\clib3s.lib(heapen.c)
0003:00016770  __heap_enabled
Module: d:\dev\watcom\lib386\os2\clib3s.lib(dosret.c)
0002:0005a730* __dosretax
0002:0005a740* __dosret0
0002:0005a750  __set_errno_dos
0002:0005a790* __set_errno_dos_reterr
Module: d:\dev\watcom\lib386\os2\clib3s.lib(iomode.c)
0002:0005a7b0  __GetIOMode
0002:0005a7d0  __SetIOMode_nogrow
0003:00016878  __NFiles
0003:0001687c  __init_mode
0003:000168cc  __io_mode
Module: d:\dev\watcom\lib386\os2\clib3s.lib(fsync.c)
0002:0005a7f0  fsync
Module: d:\dev\watcom\lib386\os2\clib3s.lib(qwrit.c)
0002:0005a820  __qwrite
Module: d:\dev\watcom\lib386\os2\clib3s.lib(initfile.c)
0002:0005a920  __InitFiles
Module: d:\dev\watcom\lib386\os2\clib3s.lib(ioexit.c)
0002:0005aa20* fcloseall
0002:0005aa30  __full_io_exit
Module: d:\dev\watcom\lib386\os2\clib3s.lib(stiomode.c)
0002:0005aa40  __grow_iomode
0002:0005ab00+ __shrink_iomode
0002:0005ab80  __SetIOMode
Module: d:\dev\watcom\lib386\os2\clib3s.lib(flushall.c)
0002:0005ac00  __flushall
0002:0005ac50  flushall
Module: d:\dev\watcom\lib386\os2\clib3s.lib(gtcheos2.c)
0002:0005ac60  getche
Module: d:\dev\watcom\lib386\os2\clib3s.lib(umaskval.c)
0003:000168d0  __umaskval
Module: d:\dev\watcom\lib386\os2\clib3s.lib(os2fil64.c)
0003:000168d4  __os2_DosOpenL
0003:000168d8+ __os2_DosSetFilePtrL
0003:000168dc+ __os2_DosSetFileSizeL
0003:000168e0+ __os2_DosSetFileLocksL
Module: d:\dev\watcom\lib386\os2\clib3s.lib(isattos2.c)
0002:0005ad70  isatty
Module: d:\dev\watcom\lib386\os2\clib3s.lib(libmno32.c)
0002:0005ada0  __dll_initialize
Module: d:\dev\watcom\lib386\os2\clib3s.lib(libterm.c)
0002:0005adb0  __dll_terminate
Module: d:\dev\watcom\lib386\os2\clib3s.lib(thredo32.c)
0002:0005ae60  __CBeginThread
0002:0005af10  __CEndThread
Module: d:\dev\watcom\lib386\math387s.lib(ldclass.c)
0002:0005af28  __LDClass
0002:0005af76* _FLClass
Module: d:\dev\watcom\lib386\math387s.lib(bufld386.asm)
0002:0005af88  __ZBuf2LD
Module: d:\dev\watcom\lib386\math387s.lib(inf_nan.c)
0002:0005b02b* __f_infinity
0002:0005b02f* __f_posqnan
0002:0005b033  __d_infinity
0002:0005b03b  __d_posqnan
0002:0005b043* __ld_infinity
0002:0005b04b* __ld_posqnan
Module: d:\dev\watcom\lib386\os2\clib3s.lib(hugeval.c)
0002:0005b060  _HugeValue
Module: d:\dev\watcom\lib386\os2\clib3s.lib(wctomb.c)
0002:0005b070  wctomb
Module: d:\dev\watcom\lib386\os2\clib3s.lib(itoa.c)
0002:0005b0b0+ utoa
0002:0005b110  itoa
Module: d:\dev\watcom\lib386\os2\clib3s.lib(strupr.c)
0002:0005b150  strupr
Module: d:\dev\watcom\lib386\os2\clib3s.lib(lltoa.c)
0002:0005b170  ulltoa
0002:0005b1e0* lltoa
Module: d:\dev\watcom\lib386\os2\clib3s.lib(ltoa.c)
0002:0005b220  ultoa
0002:0005b280* ltoa
Module: d:\dev\watcom\lib386\os2\clib3s.lib(mbisdbcs.c)
0003:000168e4  __IsDBCS
Module: d:\dev\watcom\lib386\os2\clib3s.lib(mbislead.c)
0002:0005b2c0* _ismbblead
0003:00017188  __MBCSIsTable
Module: d:\dev\watcom\lib386\os2\clib3s.lib(hdlman.c)
0003:000168e8  __NHandles
Module: d:\dev\watcom\lib386\os2\clib3s.lib(iomodtty.c)
0002:0005b2f0  __ChkTTYIOMode
0002:0005b340* __IOMode
Module: d:\dev\watcom\lib386\os2\clib3s.lib(getchos2.c)
0002:0005b360  getch
Module: d:\dev\watcom\lib386\os2\clib3s.lib(putchos2.c)
0002:0005b410  putch
Module: d:\dev\watcom\lib386\os2\clib3s.lib(alphabet.c)
0003:00001760  __Alphabet
Module: d:\dev\watcom\lib386\os2\clib3s.lib(mbinit.c)
0002:0005b49f  __mbinit
0003:000168ec+ __MBCodePage
Module: d:\dev\watcom\lib386\os2\clib3s.lib(thunk)
0002:0005b5b4  __TNK
0002:0005b5a0* __TNC
Module: d:\dev\watcom\lib386\os2\clib3s.lib(far16fun)
0002:0005b604  __Far16Func2
0002:0005b64d* __Far16Func
0002:0005b69b* __Far16Pascal2
0002:0005b6e2* __Far16Pascal
0002:0005b72e* __Far16Cdecl2
0002:0005b77c* __Far16Cdecl
0002:0005b7cf  __FlatToFar16
0002:0005b7d8* __Far16ToFlat
Module: d:\dev\watcom\lib386\os2\clib3s.lib(itsto32.c)
0002:0005b7f0  __init_threadstksize


                        +----------------------+
                        |   Imported Symbols   |
                        +----------------------+

Symbol                              Module
======                              ======

SDL_memset                          sdl2
SDL_SetError                        sdl2
SDL_malloc                          sdl2
SDL_RWFromFile                      sdl2
SDL_free                            sdl2
SDL_ceil                            sdl2
SDL_memcpy                          sdl2
SDL_strlen                          sdl2
SDL_Error                           sdl2
SDL_CreateRGBSurface                sdl2
SDL_SetColorKey                     sdl2
SDL_FreeSurface                     sdl2
SDL_FillRect                        sdl2
SDL_strlcpy                         sdl2
SDL_realloc                         sdl2
SDL_strchr                          sdl2
DosUnwindException                  DOSCALLS
DosWrite                            DOSCALLS
DosQuerySysInfo                     DOSCALLS
DosExit                             DOSCALLS
DosGetInfoBlocks                    DOSCALLS
DosQueryModuleName                  DOSCALLS
DosDevConfig                        DOSCALLS
DosCloseMutexSem                    DOSCALLS
DosCreateMutexSem                   DOSCALLS
DosRequestMutexSem                  DOSCALLS
DosReleaseMutexSem                  DOSCALLS
DosLoadModule                       DOSCALLS
DosQueryProcAddr                    DOSCALLS
DosOpen                             DOSCALLS
DosClose                            DOSCALLS
DosAllocMem                         DOSCALLS
DosSetFilePtr                       DOSCALLS
DosRead                             DOSCALLS
DosFreeMem                          DOSCALLS
DosResetBuffer                      DOSCALLS
DosSetRelMaxFH                      DOSCALLS
DosQueryModuleHandle                DOSCALLS
DosQueryHType                       DOSCALLS
DosPostEventSem                     DOSCALLS
DosCreateEventSem                   DOSCALLS
DosCreateThread                     DOSCALLS
DosCloseEventSem                    DOSCALLS
DosWaitEventSem                     DOSCALLS
KBD16CHARIN                         KBDCALLS
VIO16WRTTTY                         VIOCALLS
DosQueryDBCSEnv                     NLS
DosQueryCp                          DOSCALLS
DosFlatToSel                        DOSCALLS
DosSelToFlat                        DOSCALLS


                        +--------------------+
                        |   Libraries Used   |
                        +--------------------+

..\..\lib\freetype.lib
..\..\lib\sdl2.lib
d:\dev\watcom\lib386\math387s.lib
d:\dev\watcom\lib386\os2\clib3s.lib
d:\dev\watcom\lib386\os2\os2386.lib


                        +-----------------------+
                        |   Linker Statistics   |
                        +-----------------------+

Stack size:  0000 (0.)
Memory size:  00072af3 (469747.)
Link time: 00:00.18
